(dp0
S'neige'
p1
(lp2
S'interludes'
p3
aS'eung'
p4
aS'non-muslims'
p5
aS'monochromator'
p6
aS'mycologists'
p7
aS'orientals'
p8
aS'theosophists'
p9
asS'all'
p10
(lp11
S'those'
p12
aS'other'
p13
aS'these'
p14
aS'so'
p15
aS'only'
p16
aS'well'
p17
aS'not'
p18
aS'there'
p19
asS'forget'
p20
(lp21
S'remember'
p22
aS'you'
p23
aS"'ll"
p24
aS'tell'
p25
aS'?'
p26
aS'anymore'
p27
aS'maybe'
p28
asS'gp'
p29
(lp30
S'prix'
p31
aS'f1'
p32
aS'motorcycling'
p33
aS'motogp'
p34
aS'moto'
p35
aS'guyanese'
p36
aS'monza'
p37
aS'massa'
p38
asS'dance'
p39
(lp40
S'dancing'
p41
aS'dances'
p42
aS'dancers'
p43
aS'music'
p44
aS'ballet'
p45
aS'choreography'
p46
aS'dancer'
p47
aS'musical'
p48
asS'skip'
p49
(lp50
S'skipped'
p51
aS'skipping'
p52
aS'forgo'
p53
aS'hajduk'
p54
aS'opted'
p55
aS'go'
p56
aS'opting'
p57
aS'chose'
p58
asS'activated'
p59
(lp60
S'activate'
p61
aS'deactivated'
p62
aS'activation'
p63
aS'activating'
p64
aS'activates'
p65
aS'inactivated'
p66
aS'reactivated'
p67
aS'reassigned'
p68
asS'month'
p69
(lp70
S'week'
p71
aS'last'
p72
aS'months'
p73
aS'year'
p74
aS'weeks'
p75
aS'earlier'
p76
aS'ago'
p77
aS'days'
p78
asS'manager'
p79
(lp80
S'assistant'
p81
aS'managing'
p82
aS'management'
p83
aS'managers'
p84
aS'boss'
p85
aS'coach'
p86
aS'director'
p87
aS'owner'
p88
asS'sleep'
p89
(lp90
S'sleeping'
p91
aS'asleep'
p92
aS'slept'
p93
aS'bed'
p94
aS'awake'
p95
aS'deprivation'
p96
aS'hennepin'
p97
aS'waking'
p98
asS'gb'
p99
(lp100
S'mb'
p101
aS'bifida'
p102
aS'furcal'
p103
aS'sd'
p104
aS'l'
p105
aS'w'
p106
aS'megabytes'
p107
aS'amenhotep'
p108
asS'go'
p109
(lp110
S'going'
p111
aS'come'
p112
aS'you'
p113
aS"n't"
p114
aS"'ll"
p115
aS'want'
p116
aS'gone'
p117
aS'get'
p118
asS'adjustment'
p119
(lp120
S'adjustments'
p121
aS'adjusting'
p122
aS'adjust'
p123
aS'changes'
p124
aS'structural'
p125
aS'gasped'
p126
aS'adjusted'
p127
aS'upward'
p128
asS'1948'
p129
(lp130
S'1951'
p131
aS'1947'
p132
aS'1952'
p133
aS'1950'
p134
aS'1956'
p135
aS'1953'
p136
aS'1946'
p137
aS'1955'
p138
asS'raining'
p139
(lp140
S'rained'
p141
aS'bellerive'
p142
aS'pouring'
p143
aS'confetti'
p144
aS'orcas'
p145
aS'shells'
p146
aS'crashing'
p147
aS'blowing'
p148
asS'paris'
p149
(lp150
S'mormeck'
p151
aS'france'
p152
aS'french'
p153
aS'brussels'
p154
aS'london'
p155
aS'strasbourg'
p156
aS'parisian'
p157
aS'rome'
p158
asS'concerned'
p159
(lp160
S'worried'
p161
aS'aware'
p162
aS'concern'
p163
aS'obviously'
p164
aS'concerns'
p165
aS'particularly'
p166
aS'especially'
p167
aS'interested'
p168
asS'thursday'
p169
(lp170
S'tuesday'
p171
aS'wednesday'
p172
aS'monday'
p173
aS'friday'
p174
aS'saturday'
p175
aS'sunday'
p176
aS'week'
p177
aS'afternoon'
p178
asS'presents'
p179
(lp180
S'presented'
p181
aS'presenting'
p182
aS'gives'
p183
aS'interesting'
p184
aS'shows'
p185
aS'offers'
p186
aS'brings'
p187
aS'highlights'
p188
asS'to'
p189
(lp190
S'help'
p191
aS'would'
p192
aS'able'
p193
aS'take'
p194
aS'give'
p195
aS'make'
p196
aS'try'
p197
aS'could'
p198
asS'finally'
p199
(lp200
S'eventually'
p201
aS'again'
p202
aS'soon'
p203
aS'then'
p204
aS'when'
p205
aS'quickly'
p206
aS'before'
p207
aS'after'
p208
asS'spain'
p209
(lp210
S'spanish'
p211
aS'portugal'
p212
aS'madrid'
p213
aS'morocco'
p214
aS'argentina'
p215
aS'italy'
p216
aS'france'
p217
aS'barcelona'
p218
asS'presentation'
p219
(lp220
S'presentations'
p221
aS'presented'
p222
aS'presenting'
p223
aS'reined'
p224
aS'ceremony'
p225
aS'televised'
p226
aS'speech'
p227
aS'preview'
p228
asS'tequila'
p229
(lp230
S'vodka'
p231
aS'dujarric'
p232
aS'basler'
p233
aS'goure'
p234
aS'rum'
p235
aS'aragorn'
p236
aS'whisky'
p237
aS'whiskey'
p238
asS'appointment'
p239
(lp240
S'appointed'
p241
aS'appointments'
p242
aS'resignation'
p243
aS'appointing'
p244
aS'appoint'
p245
aS'tenure'
p246
aS'resigned'
p247
aS'announcement'
p248
asS'every'
p249
(lp250
S'each'
p251
aS'one'
p252
aS'day'
p253
aS'you'
p254
aS'same'
p255
aS'all'
p256
aS'just'
p257
aS'so'
p258
asS'jack'
p259
(lp260
S'tom'
p261
aS'nicholson'
p262
aS'billy'
p263
aS'murphy'
p264
aS'allen'
p265
aS'dick'
p266
aS'joe'
p267
aS'jim'
p268
asS'postpone'
p269
(lp270
S'postponing'
p271
aS'postponed'
p272
aS'postponement'
p273
aS'cancel'
p274
aS'delaying'
p275
aS'delay'
p276
aS'defer'
p277
aS'delayed'
p278
asS'tickets'
p279
(lp280
S'ticket'
p281
aS'booking'
p282
aS'fares'
p283
aS'booked'
p284
aS'fare'
p285
aS'szczerbiak'
p286
aS'discounted'
p287
aS'uninitiated'
p288
asS'heaven'
p289
(lp290
S'hell'
p291
aS'god'
p292
aS'heavens'
p293
aS'heavenly'
p294
aS'afterlife'
p295
aS'gods'
p296
aS'divine'
p297
aS'allah'
p298
asS'did'
p299
(lp300
S"n't"
p301
aS'not'
p302
aS'never'
p303
aS'would'
p304
aS'but'
p305
aS'do'
p306
aS'they'
p307
aS'could'
p308
asS'list'
p309
(lp310
S'lists'
p311
aS'listed'
p312
aS'names'
p313
aS'listing'
p314
aS'included'
p315
aS'number'
p316
aS'include'
p317
aS'includes'
p318
asS'wednesday'
p319
(lp320
S'tuesday'
p321
aS'thursday'
p322
aS'monday'
p323
aS'friday'
p324
aS'saturday'
p325
aS'sunday'
p326
aS'week'
p327
aS'afternoon'
p328
asS'leave'
p329
(lp330
S'leaving'
p331
aS'stay'
p332
aS'return'
p333
aS'go'
p334
aS'come'
p335
aS'take'
p336
aS'left'
p337
aS'would'
p338
asS'p'
p339
(lp340
S'h'
p341
aS'w'
p342
aS'j'
p343
aS'k'
p344
aS'f'
p345
aS's'
p346
asS'team'
p347
(lp348
S'teams'
p349
aS'squad'
p350
aS'football'
p351
aS'championship'
p352
aS'players'
p353
aS'basketball'
p354
aS'coach'
p355
aS'league'
p356
asS'deadline'
p357
(lp358
S'deadlines'
p359
aS'timetable'
p360
aS'expired'
p361
aS'ultimatum'
p362
aS'dec.'
p363
aS'expires'
p364
aS'date'
p365
aS'agreement'
p366
asS'force'
p367
(lp368
S'forces'
p369
aS'military'
p370
aS'air'
p371
aS'troops'
p372
aS'army'
p373
aS'peacekeeping'
p374
aS'command'
p375
aS'deployed'
p376
asS'tired'
p377
(lp378
S'weary'
p379
aS'frustrated'
p380
aS'fatigued'
p381
aS'bored'
p382
aS"'m"
p383
aS'scared'
p384
aS'exhausted'
p385
aS'sick'
p386
asS'6pm'
p387
(lp388
S'sylvie'
p389
aS'backlogged'
p390
aS'schumacher'
p391
aS'ferrari'
p392
aS'adelphi'
p393
aS'britanniae'
p394
aS'montoya'
p395
aS'co-production'
p396
asS'what'
p397
(lp398
S'how'
p399
aS'know'
p400
aS'why'
p401
aS'think'
p402
aS"n't"
p403
aS'something'
p404
aS'that'
p405
aS'really'
p406
asS'liam'
p407
(lp408
S'awakens'
p409
aS'plunkett'
p410
aS'gallagher'
p411
aS'prepped'
p412
aS'noel'
p413
aS'byrne'
p414
aS'cns'
p415
aS'carmax'
p416
asS'4'
p417
(lp418
S'3'
p419
aS'6'
p420
aS'5'
p421
aS'2'
p422
aS'7'
p423
aS'8'
p424
aS'9'
p425
aS'1'
p426
asS'find'
p427
(lp428
S'finding'
p429
aS'able'
p430
aS'looking'
p431
aS'trying'
p432
aS'get'
p433
aS'something'
p434
aS'come'
p435
aS'help'
p436
asS'new'
p437
(lp438
S'york'
p439
aS'first'
p440
aS'same'
p441
aS'.'
p442
aS'next'
p443
aS'the'
p444
aS'jersey'
p445
aS'this'
p446
asS'ever'
p447
(lp448
S'never'
p449
aS'even'
p450
aS'yet'
p451
aS"'ve"
p452
aS'always'
p453
aS'so'
p454
aS'thing'
p455
aS'far'
p456
asS'told'
p457
(lp458
S'reporters'
p459
aS'said'
p460
aS'afp'
p461
aS'interview'
p462
aS'asked'
p463
aS'saying'
p464
aS'quoted'
p465
aS'telling'
p466
asS'liffey'
p467
(lp468
S'loor'
p469
aS'csny'
p470
aS'kankakee'
p471
aS'borut'
p472
aS'iker'
p473
aS'spondon'
p474
aS'collum'
p475
aS'kisling'
p476
asS'full'
p477
(lp478
S'complete'
p479
aS'all'
p480
aS'its'
p481
aS'fully'
p482
aS'only'
p483
aS'but'
p484
aS'more'
p485
aS'will'
p486
asS'visting'
p487
(lp488
S'chikhladze'
p489
aS'yeslam'
p490
aS'98.62'
p491
aS'bruynseraede'
p492
aS'nevison'
p493
aS'agrivisor'
p494
aS'paheli'
p495
aS'rcsi'
p496
asS'never'
p497
(lp498
S"n't"
p499
aS'not'
p500
aS'did'
p501
aS'but'
p502
aS'even'
p503
aS'ever'
p504
aS'once'
p505
aS'neither'
p506
asS'french'
p507
(lp508
S'france'
p509
aS'belgian'
p510
aS'paris'
p511
aS'spanish'
p512
aS'italian'
p513
aS'british'
p514
aS'german'
p515
aS'mormeck'
p516
asS'hours'
p517
(lp518
S'hour'
p519
aS'days'
p520
aS'minutes'
p521
aS'weeks'
p522
aS'morning'
p523
aS'day'
p524
aS'afternoon'
p525
aS'time'
p526
asS'let'
p527
(lp528
S'want'
p529
aS'you'
p530
aS"'ll"
p531
aS'letting'
p532
aS'go'
p533
aS"n't"
p534
aS'do'
p535
asS'pancake'
p536
(lp537
S'pancakes'
p538
aS'30.7'
p539
aS'lunacy'
p540
aS'cakes'
p541
aS'syrup'
p542
aS'potato'
p543
aS'oatmeal'
p544
aS'vlado'
p545
asS'november'
p546
(lp547
S'october'
p548
aS'december'
p549
aS'february'
p550
aS'september'
p551
aS'january'
p552
aS'april'
p553
aS'june'
p554
aS'august'
p555
asS'teacher'
p556
(lp557
S'teachers'
p558
aS'student'
p559
aS'teaching'
p560
aS'taught'
p561
aS'school'
p562
aS'schoolteacher'
p563
aS'classroom'
p564
aS'instructor'
p565
asS'change'
p566
(lp567
S'changes'
p568
aS'changing'
p569
aS'changed'
p570
aS'shift'
p571
aS'need'
p572
aS'what'
p573
aS'this'
p574
aS'should'
p575
asS'search'
p576
(lp577
S'searching'
p578
aS'searches'
p579
aS'find'
p580
aS'searched'
p581
aS'finding'
p582
aS'locate'
p583
aS'web'
p584
aS'google'
p585
asS'daughter'
p586
(lp587
S'wife'
p588
aS'mother'
p589
aS'son'
p590
aS'daughters'
p591
aS'granddaughter'
p592
aS'niece'
p593
aS'sister'
p594
aS'eldest'
p595
asS'ahead'
p596
(lp597
S'next'
p598
aS'behind'
p599
aS'coming'
p600
aS'weekend'
p601
aS'start'
p602
aS'week'
p603
aS'put'
p604
aS'expected'
p605
asS'33'
p606
(lp607
S'34'
p608
aS'36'
p609
aS'38'
p610
aS'37'
p611
aS'42'
p612
aS'43'
p613
aS'39'
p614
aS'32'
p615
asS'shift'
p616
(lp617
S'shifts'
p618
aS'shifting'
p619
aS'change'
p620
aS'shifted'
p621
aS'changes'
p622
aS'changing'
p623
aS'switch'
p624
aS'move'
p625
asS'leaves'
p626
(lp627
S'leaf'
p628
aS'stems'
p629
aS'leaving'
p630
aS'leave'
p631
aS'ends'
p632
aS'flowers'
p633
aS'stalks'
p634
aS'grows'
p635
asS'30'
p636
(lp637
S'20'
p638
aS'25'
p639
aS'15'
p640
aS'40'
p641
aS'10'
p642
aS'28'
p643
aS'27'
p644
aS'22'
p645
asS'bot'
p646
(lp647
S'2301'
p648
aS'ngong'
p649
aS'bieler'
p650
aS'21-5'
p651
aS'deurne'
p652
aS'seamers'
p653
aS'amerada'
p654
aS'cumans'
p655
asS'12am'
p656
(lp657
S'valjala'
p658
aS'26-strong'
p659
aS'smca'
p660
aS'valleycats'
p661
aS'dereg'
p662
aS'hagedon'
p663
aS'46m'
p664
aS'quatrina'
p665
asS'tayto'
p666
(lp667
S'apoula'
p668
aS'coppedge'
p669
aS'80-square'
p670
aS'7.7355'
p671
aS'talers'
p672
aS'750-square'
p673
aS'quatrina'
p674
aS'hejmo'
p675
asS'pasquale'
p676
(lp677
S'kingsbury'
p678
aS'giuseppe'
p679
aS'di'
p680
aS'corsi'
p681
aS'arnaud'
p682
aS'giovanni'
p683
aS'stefano'
p684
aS'viisage'
p685
asS'pick'
p686
(lp687
S'picks'
p688
aS'picked'
p689
aS'picking'
p690
aS"'ll"
p691
aS'choice'
p692
aS'draft'
p693
aS'choose'
p694
aS'select'
p695
asS'kathmandu'
p696
(lp697
S'katmandu'
p698
aS'nepal'
p699
aS'nepali'
p700
aS'asarco'
p701
aS'dhaka'
p702
aS'nepalese'
p703
aS'bangkok'
p704
aS'lhasa'
p705
asS'postponed'
p706
(lp707
S'delayed'
p708
aS'rescheduled'
p709
aS'postpone'
p710
aS'scheduled'
p711
aS'postponement'
p712
aS'canceled'
p713
aS'cancelled'
p714
aS'postponing'
p715
asS'extra'
p716
(lp717
S'additional'
p718
aS'needed'
p719
aS'add'
p720
aS'plus'
p721
aS'need'
p722
aS'give'
p723
aS'enough'
p724
aS'amount'
p725
asS'apr'
p726
(lp727
S'oct'
p728
aS'nov'
p729
aS'aug'
p730
aS'arrayed'
p731
aS'melding'
p732
aS'feb'
p733
aS':30'
p734
aS'fri'
p735
asS'kayak'
p736
(lp737
S'canoe'
p738
aS'canoeing'
p739
aS'kayaking'
p740
aS'pech'
p741
aS'izzat'
p742
aS'rowing'
p743
aS'biking'
p744
asS'guests'
p745
(lp746
S'dinner'
p747
aS'guest'
p748
aS'dignitaries'
p749
aS'invited'
p750
aS'visitors'
p751
aS'attendees'
p752
aS'celebrities'
p753
aS'greet'
p754
asS'total'
p755
(lp756
S'estimated'
p757
aS'million'
p758
aS'combined'
p759
aS'amount'
p760
aS'nearly'
p761
aS'100'
p762
aS'totaled'
p763
aS'70'
p764
asS'from'
p765
(lp766
S'back'
p767
aS'came'
p768
aS'coming'
p769
aS'out'
p770
aS'away'
p771
aS'same'
p772
aS'taken'
p773
aS'.'
p774
asS'working'
p775
(lp776
S'work'
p777
aS'worked'
p778
aS'doing'
p779
aS'job'
p780
aS'done'
p781
aS'workers'
p782
aS'time'
p783
aS'well'
p784
asS'sake'
p785
(lp786
S'sacrificing'
p787
aS'goodness'
p788
aS'realizing'
p789
aS'sacrificed'
p790
aS'realize'
p791
aS'sacrifice'
p792
aS'dignity'
p793
aS'our'
p794
asS'visit'
p795
(lp796
S'visits'
p797
aS'trip'
p798
aS'visited'
p799
aS'visiting'
p800
aS'meeting'
p801
aS'delegation'
p802
aS'invitation'
p803
aS'here'
p804
asS'two'
p805
(lp806
S'three'
p807
aS'four'
p808
aS'five'
p809
aS'six'
p810
aS'eight'
p811
aS'seven'
p812
aS'one'
p813
aS'nine'
p814
asS'next'
p815
(lp816
S'will'
p817
aS'expected'
p818
aS'coming'
p819
aS'before'
p820
aS'week'
p821
aS'year'
p822
aS'month'
p823
aS'take'
p824
asS'6'
p825
(lp826
S'5'
p827
aS'4'
p828
aS'7'
p829
aS'8'
p830
aS'3'
p831
aS'9'
p832
aS'2'
p833
aS'12'
p834
asS'25th'
p835
(lp836
S'30th'
p837
aS'26th'
p838
aS'22nd'
p839
aS'40th'
p840
aS'35th'
p841
aS'24th'
p842
aS'23rd'
p843
aS'28th'
p844
asS'until'
p845
(lp846
S'before'
p847
aS'again'
p848
aS'till'
p849
aS'when'
p850
aS'then'
p851
aS'time'
p852
aS'beginning'
p853
aS'soon'
p854
asS'today'
p855
(lp856
S'here'
p857
aS'now'
p858
aS'yesterday'
p859
aS'it'
p860
aS'this'
p861
aS'tomorrow'
p862
aS'what'
p863
aS'still'
p864
asS'more'
p865
(lp866
S'than'
p867
aS'less'
p868
aS'much'
p869
aS'least'
p870
aS'even'
p871
aS'most'
p872
aS'some'
p873
aS'so'
p874
asS'door'
p875
(lp876
S'doors'
p877
aS'window'
p878
aS'room'
p879
aS'front'
p880
aS'inside'
p881
aS'locked'
p882
aS'upstairs'
p883
aS'entrance'
p884
asS'upcoming'
p885
(lp886
S'forthcoming'
p887
aS'scheduled'
p888
aS'slated'
p889
aS'next'
p890
aS'weekend'
p891
aS'preparations'
p892
aS'planned'
p893
aS'2014'
p894
asS'club'
p895
(lp896
S'clubs'
p897
aS'football'
p898
aS'league'
p899
aS'soccer'
p900
aS'team'
p901
aS'rugby'
p902
aS'playing'
p903
aS'side'
p904
asS'haha'
p905
(lp906
S'263rd'
p907
aS'marston'
p908
aS'cultural-historical'
p909
aS'sampford'
p910
aS'rius'
p911
aS'myrlie'
p912
aS'honglei'
p913
aS'osd'
p914
asS'must'
p915
(lp916
S'should'
p917
aS'cannot'
p918
aS'need'
p919
aS'can'
p920
aS'if'
p921
aS'will'
p922
aS'able'
p923
aS'we'
p924
asS'me'
p925
(lp926
S'you'
p927
aS'i'
p928
aS'really'
p929
aS'know'
p930
aS'somebody'
p931
aS'tell'
p932
aS"'d"
p933
aS'thing'
p934
asS'room'
p935
(lp936
S'rooms'
p937
aS'upstairs'
p938
aS'floor'
p939
aS'bedroom'
p940
aS'locker'
p941
aS'dining'
p942
aS'hallway'
p943
aS'bathroom'
p944
asS'hour'
p945
(lp946
S'hours'
p947
aS'minutes'
p948
aS'morning'
p949
aS'days'
p950
aS'30-minute'
p951
aS'afternoon'
p952
aS'evening'
p953
aS'90-minute'
p954
asS'f'
p955
(lp956
S'c'
p957
aS'k'
p958
aS'w'
p959
aS'h'
p960
aS'j'
p961
aS'l'
p962
asS'this'
p963
(lp964
S'it'
p965
aS'same'
p966
aS'that'
p967
aS'so'
p968
aS'what'
p969
aS'because'
p970
aS'but'
p971
aS'which'
p972
asS'work'
p973
(lp974
S'working'
p975
aS'works'
p976
aS'worked'
p977
aS'done'
p978
aS'well'
p979
aS'doing'
p980
aS'job'
p981
aS'time'
p982
asS'can'
p983
(lp984
S'could'
p985
aS'if'
p986
aS'cannot'
p987
aS'must'
p988
aS'you'
p989
aS'able'
p990
aS'be'
p991
aS'will'
p992
asS'mr'
p993
(lp994
S'mr.'
p995
aS'mrs'
p996
aS'dr'
p997
aS'sir'
p998
aS'tung'
p999
aS'headmaster'
p1000
aS'mrs.'
p1001
aS'wong'
p1002
asS'meet'
p1003
(lp1004
S'met'
p1005
aS'meeting'
p1006
aS'meets'
p1007
aS'discuss'
p1008
aS'next'
p1009
aS'will'
p1010
aS'must'
p1011
aS'expected'
p1012
asS'blarney'
p1013
(lp1014
S'goofs'
p1015
aS'deri'
p1016
aS'gasser'
p1017
aS"o'barry"
p1018
aS'bistro'
p1019
aS'maiduguri'
p1020
aS'sieve'
p1021
aS'tobar'
p1022
asS'my'
p1023
(lp1024
S'your'
p1025
aS'i'
p1026
aS'me'
p1027
aS'our'
p1028
aS'you'
p1029
aS'her'
p1030
aS"'d"
p1031
aS'his'
p1032
asS'kenny'
p1033
(lp1034
S'rogers'
p1035
aS'lofton'
p1036
aS'alex'
p1037
aS'greg'
p1038
aS'cst'
p1039
aS'darren'
p1040
aS'golubev'
p1041
aS'garrett'
p1042
asS'give'
p1043
(lp1044
S'giving'
p1045
aS'take'
p1046
aS'want'
p1047
aS'get'
p1048
aS'gave'
p1049
aS'gives'
p1050
aS'make'
p1051
aS'to'
p1052
asS'organized'
p1053
(lp1054
S'organised'
p1055
aS'organize'
p1056
aS'organizing'
p1057
aS'organizations'
p1058
aS'sponsored'
p1059
aS'participated'
p1060
aS'organization'
p1061
aS'groups'
p1062
asS'tag'
p1063
(lp1064
S'tags'
p1065
aS'wrestling'
p1066
aS'wwe'
p1067
aS'nwa'
p1068
aS'illegible'
p1069
aS'expats'
p1070
aS'tagged'
p1071
aS'wwf'
p1072
asS'want'
p1073
(lp1074
S"n't"
p1075
aS'do'
p1076
aS'you'
p1077
aS'know'
p1078
aS'should'
p1079
aS"'ll"
p1080
aS'we'
p1081
aS'wanted'
p1082
asS'david'
p1083
(lp1084
S'james'
p1085
aS'stephen'
p1086
aS'steven'
p1087
aS'alan'
p1088
aS'dave'
p1089
aS'jonathan'
p1090
aS'scott'
p1091
aS'henry'
p1092
asS'tak'
p1093
(lp1094
S'6.38'
p1095
aS'bai'
p1096
aS'kee'
p1097
aS'chau'
p1098
aS'brauer'
p1099
aS'kai'
p1100
aS'deiss'
p1101
asS'information'
p1102
(lp1103
S'data'
p1104
aS'knowledge'
p1105
aS'provide'
p1106
aS'provided'
p1107
aS'documents'
p1108
aS'access'
p1109
aS'providing'
p1110
aS'available'
p1111
asS'needs'
p1112
(lp1113
S'need'
p1114
aS'needed'
p1115
aS'must'
p1116
aS'wants'
p1117
aS'help'
p1118
aS'necessary'
p1119
aS'ensure'
p1120
aS'should'
p1121
asS'end'
p1122
(lp1123
S'ending'
p1124
aS'ends'
p1125
aS'ended'
p1126
aS'beginning'
p1127
aS'this'
p1128
aS'year'
p1129
aS'.'
p1130
aS'last'
p1131
asS'1'
p1132
(lp1133
S'2'
p1134
aS'3'
p1135
aS'4'
p1136
aS'5'
p1137
aS'6'
p1138
aS'8'
p1139
aS'7'
p1140
aS'9'
p1141
asS'till'
p1142
(lp1143
S'until'
p1144
aS'sometime'
p1145
aS'beginning'
p1146
aS'wait'
p1147
aS'onwards'
p1148
aS'date'
p1149
aS'caged'
p1150
aS'midnight'
p1151
asS'sunday'
p1152
(lp1153
S'saturday'
p1154
aS'friday'
p1155
aS'monday'
p1156
aS'thursday'
p1157
aS'wednesday'
p1158
aS'tuesday'
p1159
aS'weekend'
p1160
aS'week'
p1161
asS'justin'
p1162
(lp1163
S'timberlake'
p1164
aS'wintry'
p1165
aS'ricky'
p1166
aS'matthew'
p1167
aS'langer'
p1168
aS'leonard'
p1169
aS'darren'
p1170
aS'damien'
p1171
asS'instead'
p1172
(lp1173
S'rather'
p1174
aS'simply'
p1175
aS'either'
p1176
aS'them'
p1177
aS'using'
p1178
aS'without'
p1179
aS'while'
p1180
aS'same'
p1181
asS'pizza'
p1182
(lp1183
S'2.89'
p1184
aS'taco'
p1185
aS'200-million'
p1186
aS'sandwiches'
p1187
aS'restaurant'
p1188
aS'sandwich'
p1189
aS'burgers'
p1190
aS'pasta'
p1191
asS'samuel'
p1192
(lp1193
S'walter'
p1194
aS'william'
p1195
aS'h.'
p1196
aS'henry'
p1197
aS'thomas'
p1198
aS'joseph'
p1199
aS"eto'o"
p1200
aS'jonathan'
p1201
asS'plans'
p1202
(lp1203
S'plan'
p1204
aS'planned'
p1205
aS'planning'
p1206
aS'proposal'
p1207
aS'proposed'
p1208
aS'announced'
p1209
aS'intends'
p1210
aS'would'
p1211
asS'attend'
p1212
(lp1213
S'attending'
p1214
aS'attended'
p1215
aS'invited'
p1216
aS'attends'
p1217
aS'participate'
p1218
aS'meeting'
p1219
aS'ceremony'
p1220
aS'meetings'
p1221
asS'may'
p1222
(lp1223
S'might'
p1224
aS'likely'
p1225
aS'could'
p1226
aS'april'
p1227
aS'june'
p1228
aS'would'
p1229
aS'not'
p1230
aS'can'
p1231
asS'stop'
p1232
(lp1233
S'stopping'
p1234
aS'stops'
p1235
aS'stopped'
p1236
aS'halt'
p1237
aS'prevent'
p1238
aS'trying'
p1239
aS'going'
p1240
aS'doing'
p1241
asS'after'
p1242
(lp1243
S'before'
p1244
aS'following'
p1245
aS'when'
p1246
aS'last'
p1247
aS'shortly'
p1248
aS'later'
p1249
aS'week'
p1250
aS'months'
p1251
asS'lab'
p1252
(lp1253
S'laboratory'
p1254
aS'labs'
p1255
aS'laboratories'
p1256
aS'research'
p1257
aS'researchers'
p1258
aS'experiments'
p1259
aS'scientists'
p1260
aS'testing'
p1261
asS'france'
p1262
(lp1263
S'french'
p1264
aS'paris'
p1265
aS'belgium'
p1266
aS'spain'
p1267
aS'italy'
p1268
aS'germany'
p1269
aS'mormeck'
p1270
aS'britain'
p1271
asS'mac'
p1272
(lp1273
S'fannie'
p1274
aS'os'
p1275
aS'macintosh'
p1276
aS'freddie'
p1277
aS'mae'
p1278
aS'apple'
p1279
aS'pc'
p1280
aS'macs'
p1281
asS'plane'
p1282
(lp1283
S'airplane'
p1284
aS'planes'
p1285
aS'jet'
p1286
aS'crashed'
p1287
aS'aircraft'
p1288
aS'flight'
p1289
aS'airliner'
p1290
aS'crash'
p1291
asS'coming'
p1292
(lp1293
S'come'
p1294
aS'going'
p1295
aS'came'
p1296
aS'next'
p1297
aS'start'
p1298
aS'back'
p1299
aS'just'
p1300
aS'we'
p1301
asS'date'
p1302
(lp1303
S'dates'
p1304
aS'earliest'
p1305
aS'beginning'
p1306
aS'exact'
p1307
aS'prior'
p1308
aS'sometime'
p1309
aS'dated'
p1310
aS'early'
p1311
asS'guys'
p1312
(lp1313
S'really'
p1314
aS'maybe'
p1315
aS"'re"
p1316
aS'lot'
p1317
aS'guy'
p1318
aS'know'
p1319
aS'everybody'
p1320
aS"'ve"
p1321
asS'man'
p1322
(lp1323
S'woman'
p1324
aS'person'
p1325
aS'boy'
p1326
aS'he'
p1327
aS'men'
p1328
aS'himself'
p1329
aS'one'
p1330
aS'another'
p1331
asS'arda'
p1332
(lp1333
S'goalkicking'
p1334
aS'tipster'
p1335
aS'duch'
p1336
aS'haret'
p1337
aS'startac'
p1338
aS'frolunda'
p1339
aS'trihalomethanes'
p1340
aS'capirossi'
p1341
asS'milos'
p1342
(lp1343
S'zeman'
p1344
aS'forman'
p1345
aS'jiri'
p1346
aS'krisztian'
p1347
aS'pierpont'
p1348
aS'cayard'
p1349
aS'redleaf'
p1350
aS'urvashi'
p1351
asS'danny'
p1352
(lp1353
S'glover'
p1354
aS'kyle'
p1355
aS'marque'
p1356
aS'steve'
p1357
aS'josh'
p1358
aS'koons'
p1359
aS'git'
p1360
aS'daniel'
p1361
asS'remember'
p1362
(lp1363
S'forget'
p1364
aS'remembered'
p1365
aS'know'
p1366
aS'remembers'
p1367
aS'tell'
p1368
aS'you'
p1369
aS'maybe'
p1370
aS'remembering'
p1371
asS'johnson'
p1372
(lp1373
S'taylor'
p1374
aS'smith'
p1375
aS'miller'
p1376
aS'williams'
p1377
aS'allen'
p1378
aS'lewis'
p1379
aS'davis'
p1380
aS'clark'
p1381
asS'keil'
p1382
(lp1383
S'bylines'
p1384
aS'detergent'
p1385
aS'shampoo'
p1386
aS'inferiority'
p1387
aS'fazil'
p1388
aS'yle'
p1389
aS'irr'
p1390
aS'coman'
p1391
asS'anytime'
p1392
(lp1393
S'sooner'
p1394
aS'wo'
p1395
aS'happen'
p1396
aS'tomorrow'
p1397
aS'unless'
p1398
aS"'ll"
p1399
aS'hopefully'
p1400
aS'anywhere'
p1401
asS'9am'
p1402
(lp1403
S'dressings'
p1404
aS'embroidery'
p1405
aS'beaded'
p1406
aS'higham'
p1407
aS'half-siblings'
p1408
aS'chiffon'
p1409
aS'infuriates'
p1410
aS'lace'
p1411
asS'18th'
p1412
(lp1413
S'17th'
p1414
aS'16th'
p1415
aS'15th'
p1416
aS'19th'
p1417
aS'13th'
p1418
aS'14th'
p1419
aS'12th'
p1420
aS'20th'
p1421
asS'so'
p1422
(lp1423
S'but'
p1424
aS'too'
p1425
aS'because'
p1426
aS'even'
p1427
aS'very'
p1428
aS'if'
p1429
aS'how'
p1430
aS'they'
p1431
asS'agenda'
p1432
(lp1433
S'priorities'
p1434
aS'reform'
p1435
aS'agendas'
p1436
aS'proposals'
p1437
aS'policy'
p1438
aS'initiatives'
p1439
aS'issues'
p1440
aS'objectives'
p1441
asS'facebook'
p1442
(lp1443
S'twitter'
p1444
aS'myspace'
p1445
aS'youtube'
p1446
aS'blog'
p1447
aS'5.34'
p1448
aS'google'
p1449
aS'website'
p1450
aS'web'
p1451
asS'archaeology'
p1452
(lp1453
S'cortina'
p1454
aS'anthropology'
p1455
aS'archaeological'
p1456
aS'voinea'
p1457
aS'hawkers'
p1458
aS'geology'
p1459
aS'linguistics'
p1460
aS'archaeologist'
p1461
asS'help'
p1462
(lp1463
S'helping'
p1464
aS'to'
p1465
aS'helped'
p1466
aS'helps'
p1467
aS'bring'
p1468
aS'able'
p1469
aS'trying'
p1470
aS'need'
p1471
asS'office'
p1472
(lp1473
S'offices'
p1474
aS'headquarters'
p1475
aS'administration'
p1476
aS'department'
p1477
aS'government'
p1478
aS'building'
p1479
aS'house'
p1480
aS'official'
p1481
asS'moria'
p1482
(lp1483
S'poggio'
p1484
aS'kaori'
p1485
aS'dismally'
p1486
aS'kenner'
p1487
aS'showa'
p1488
aS'mopped'
p1489
aS'clu'
p1490
aS'bruinsma'
p1491
asS'timeshift'
p1492
(lp1493
S'chulk'
p1494
aS'popovo'
p1495
aS'qf1'
p1496
aS'crown-of-thorns'
p1497
aS'basilia'
p1498
aS'ohalete'
p1499
aS'rathdowney'
p1500
asS'move'
p1501
(lp1502
S'moves'
p1503
aS'would'
p1504
aS'moving'
p1505
aS'step'
p1506
aS'push'
p1507
aS'could'
p1508
aS'decision'
p1509
aS'will'
p1510
asS'soon'
p1511
(lp1512
S'eventually'
p1513
aS'quickly'
p1514
aS'finally'
p1515
aS'again'
p1516
aS'later'
p1517
aS'immediately'
p1518
aS'when'
p1519
aS'before'
p1520
asS'years'
p1521
(lp1522
S'ago'
p1523
aS'months'
p1524
aS'year'
p1525
aS'decades'
p1526
aS'decade'
p1527
aS'since'
p1528
aS'days'
p1529
aS'last'
p1530
asS'course'
p1531
(lp1532
S'courses'
p1533
aS'golf'
p1534
aS'way'
p1535
aS'just'
p1536
aS'going'
p1537
aS'take'
p1538
aS'follow'
p1539
aS'approach'
p1540
asS'vito'
p1541
(lp1542
S'principia'
p1543
aS'stanthorpe'
p1544
aS'russo'
p1545
aS'jemima'
p1546
aS'taieri'
p1547
aS'rad'
p1548
aS'maestra'
p1549
asS'oven'
p1550
(lp1551
S'bake'
p1552
aS'baking'
p1553
aS'wpa'
p1554
aS'stove'
p1555
aS'preheat'
p1556
aS'roasting'
p1557
aS'hinault'
p1558
aS'casserole'
p1559
asS'converting'
p1560
(lp1561
S'convert'
p1562
aS'converted'
p1563
aS'conversion'
p1564
aS'converts'
p1565
aS'catholicism'
p1566
aS'saving'
p1567
aS'penalty'
p1568
aS'christianity'
p1569
asS'still'
p1570
(lp1571
S'now'
p1572
aS'but'
p1573
aS'though'
p1574
aS'although'
p1575
aS'remain'
p1576
aS'remains'
p1577
aS'there'
p1578
aS'because'
p1579
asS'its'
p1580
(lp1581
S'their'
p1582
aS'the'
p1583
aS'which'
p1584
aS'own'
p1585
aS"'s"
p1586
aS'our'
p1587
aS'of'
p1588
aS'it'
p1589
asS'before'
p1590
(lp1591
S'after'
p1592
aS'when'
p1593
aS'then'
p1594
aS'later'
p1595
aS'time'
p1596
aS'shortly'
p1597
aS'again'
p1598
aS'next'
p1599
asS'revived'
p1600
(lp1601
S'revive'
p1602
aS'resurrected'
p1603
aS'reviving'
p1604
aS'renewed'
p1605
aS'rekindled'
p1606
aS'stalled'
p1607
aS'moribund'
p1608
aS'autoimmune'
p1609
asS'27'
p1610
(lp1611
S'28'
p1612
aS'26'
p1613
aS'23'
p1614
aS'29'
p1615
aS'22'
p1616
aS'21'
p1617
aS'19'
p1618
aS'31'
p1619
asS'group'
p1620
(lp1621
S'groups'
p1622
aS'members'
p1623
aS'organization'
p1624
aS'formed'
p1625
aS'based'
p1626
aS'which'
p1627
aS'joined'
p1628
aS'leaders'
p1629
asS'23'
p1630
(lp1631
S'22'
p1632
aS'21'
p1633
aS'27'
p1634
aS'26'
p1635
aS'28'
p1636
aS'19'
p1637
aS'29'
p1638
aS'17'
p1639
asS'lo'
p1640
(lp1641
S'windhoek'
p1642
aS'que'
p1643
aS'su'
p1644
aS'mas'
p1645
aS'todo'
p1646
aS'con'
p1647
aS'yo'
p1648
aS'si'
p1649
asS'll'
p1650
(lp1651
S'j'
p1652
aS'ssc'
p1653
aS'rapper'
p1654
aS'kierkegaard'
p1655
aS'89-year'
p1656
aS'rappers'
p1657
aS'chautauqua'
p1658
aS'khao'
p1659
asS'2015'
p1660
(lp1661
S'2020'
p1662
aS'2014'
p1663
aS'2016'
p1664
aS'2017'
p1665
aS'2025'
p1666
aS'leuven'
p1667
aS'2030'
p1668
aS'2018'
p1669
asS'weeks'
p1670
(lp1671
S'months'
p1672
aS'days'
p1673
aS'week'
p1674
aS'month'
p1675
aS'last'
p1676
aS'ago'
p1677
aS'after'
p1678
aS'years'
p1679
asS'holiday'
p1680
(lp1681
S'holidays'
p1682
aS'christmas'
p1683
aS'thanksgiving'
p1684
aS'easter'
p1685
aS'vacation'
p1686
aS'festive'
p1687
aS'weekend'
p1688
aS'festivities'
p1689
asS'theo'
p1690
(lp1691
S'waigel'
p1692
aS'epstein'
p1693
aS'walcott'
p1694
aS'ratliff'
p1695
aS'fleury'
p1696
aS'gogh'
p1697
aS'vaikundar'
p1698
aS'mjr'
p1699
asS'coffee'
p1700
(lp1701
S'tea'
p1702
aS'espresso'
p1703
aS'cocoa'
p1704
aS'starbucks'
p1705
aS'drinks'
p1706
aS'beans'
p1707
aS'drink'
p1708
aS'beer'
p1709
asS'good'
p1710
(lp1711
S'better'
p1712
aS'really'
p1713
aS'always'
p1714
aS'you'
p1715
aS'well'
p1716
aS'excellent'
p1717
aS'very'
p1718
aS'things'
p1719
asS'thrones'
p1720
(lp1721
S'mosh'
p1722
aS'fabulously'
p1723
aS'f-1'
p1724
aS'imdad'
p1725
aS'hesitate'
p1726
aS'lybrand'
p1727
aS'ever-increasing'
p1728
aS'euclid'
p1729
asS'meadowbrook'
p1730
(lp1731
S'heraclitus'
p1732
aS'medevac'
p1733
aS'prettily'
p1734
aS'toothbrushes'
p1735
aS'vasilev'
p1736
aS'hornbeck'
p1737
aS'feige'
p1738
aS'chengye'
p1739
asS'lunch'
p1740
(lp1741
S'dinner'
p1742
aS'breakfast'
p1743
aS'meal'
p1744
aS'meals'
p1745
aS'lunches'
p1746
aS'ate'
p1747
aS'lunchtime'
p1748
aS'dinners'
p1749
asS'they'
p1750
(lp1751
S'have'
p1752
aS'we'
p1753
aS'not'
p1754
aS'them'
p1755
aS'so'
p1756
aS"n't"
p1757
aS'but'
p1758
aS'did'
p1759
asS'not'
p1760
(lp1761
S"n't"
p1762
aS'but'
p1763
aS'did'
p1764
aS'would'
p1765
aS'should'
p1766
aS'if'
p1767
aS'because'
p1768
aS'they'
p1769
asS'now'
p1770
(lp1771
S'still'
p1772
aS'it'
p1773
aS'is'
p1774
aS'but'
p1775
aS'what'
p1776
aS'so'
p1777
aS'just'
p1778
aS'already'
p1779
asS'twilight'
p1780
(lp1781
S'darkness'
p1782
aS'shadows'
p1783
aS'saga'
p1784
aS'eternity'
p1785
aS'resounded'
p1786
aS'sunset'
p1787
aS'trilogy'
p1788
aS'sequel'
p1789
asS'day'
p1790
(lp1791
S'days'
p1792
aS'week'
p1793
aS'morning'
p1794
aS'month'
p1795
aS'weekend'
p1796
aS'afternoon'
p1797
aS'next'
p1798
aS'friday'
p1799
asS'february'
p1800
(lp1801
S'october'
p1802
aS'december'
p1803
aS'january'
p1804
aS'november'
p1805
aS'april'
p1806
aS'august'
p1807
aS'september'
p1808
aS'june'
p1809
asS'alex'
p1810
(lp1811
S'ferguson'
p1812
aS'rodriguez'
p1813
aS'kenny'
p1814
aS'derek'
p1815
aS'cora'
p1816
aS'gonzalez'
p1817
aS'andy'
p1818
aS'mcleish'
p1819
asS'name'
p1820
(lp1821
S'names'
p1822
aS'word'
p1823
aS'known'
p1824
aS'named'
p1825
aS'surname'
p1826
aS'nickname'
p1827
aS'refer'
p1828
aS'referred'
p1829
asS'edit'
p1830
(lp1831
S'editing'
p1832
aS'delete'
p1833
aS'upload'
p1834
aS'deleted'
p1835
aS'download'
p1836
aS'compose'
p1837
aS'edited'
p1838
aS'copy'
p1839
asS'didn'
p1840
(lp1841
S'ytv'
p1842
aS'rearview'
p1843
aS'long-tongued'
p1844
aS'gruel'
p1845
aS'taif'
p1846
aS'catholicos'
p1847
aS'1338'
p1848
aS'collinson'
p1849
asS'chuck'
p1850
(lp1851
S'hagel'
p1852
aS'larry'
p1853
aS'joe'
p1854
aS'mike'
p1855
aS'charlie'
p1856
aS'knoblauch'
p1857
aS'grassley'
p1858
aS'tom'
p1859
asS'sauron'
p1860
(lp1861
S'reinemund'
p1862
aS'diehl'
p1863
aS'wasim'
p1864
aS'ghani'
p1865
aS'ghulam'
p1866
aS'balram'
p1867
aS'trelleborg'
p1868
aS'teele'
p1869
asS'scones'
p1870
(lp1871
S'linden'
p1872
aS'bestiality'
p1873
aS'nunc'
p1874
aS'den'
p1875
aS'predating'
p1876
aS'royer'
p1877
aS'opportunists'
p1878
aS'lofoten'
p1879
asS'each'
p1880
(lp1881
S'one'
p1882
aS'every'
p1883
aS'three'
p1884
aS'two'
p1885
aS'four'
p1886
aS'five'
p1887
aS'same'
p1888
aS'six'
p1889
asS'pint'
p1890
(lp1891
S'aggregator'
p1892
aS'reuter'
p1893
aS'joyfully'
p1894
aS'strawberries'
p1895
aS'jars'
p1896
aS'sedate'
p1897
aS'bottle'
p1898
asS'everyone'
p1899
(lp1900
S'everybody'
p1901
aS'else'
p1902
aS'nobody'
p1903
aS'sure'
p1904
aS'everything'
p1905
aS'really'
p1906
aS'know'
p1907
aS'always'
p1908
asS'house'
p1909
(lp1910
S'houses'
p1911
aS'senate'
p1912
aS'congressional'
p1913
aS'congress'
p1914
aS'republicans'
p1915
aS'building'
p1916
aS'white'
p1917
aS'mansion'
p1918
asS'fish'
p1919
(lp1920
S'salmon'
p1921
aS'tuna'
p1922
aS'shrimp'
p1923
aS'meat'
p1924
aS'seafood'
p1925
aS'fishes'
p1926
aS'trout'
p1927
aS'eat'
p1928
asS'availability'
p1929
(lp1930
S'accessibility'
p1931
aS'available'
p1932
aS'scarcity'
p1933
aS'quality'
p1934
aS'access'
p1935
aS'affordability'
p1936
aS'increasing'
p1937
aS'supply'
p1938
asS'spider'
p1939
(lp1940
S'spiders'
p1941
aS'monkey'
p1942
aS'donadoni'
p1943
aS'snake'
p1944
aS'kampuchea'
p1945
aS'spider-man'
p1946
aS'frog'
p1947
aS'creature'
p1948
asS'remove'
p1949
(lp1950
S'removing'
p1951
aS'removed'
p1952
aS'removal'
p1953
aS'removes'
p1954
aS'discard'
p1955
aS'add'
p1956
aS'eliminate'
p1957
aS'aside'
p1958
asS'year'
p1959
(lp1960
S'last'
p1961
aS'month'
p1962
aS'months'
p1963
aS'years'
p1964
aS'ago'
p1965
aS'since'
p1966
aS'1997'
p1967
aS'week'
p1968
asS'our'
p1969
(lp1970
S'we'
p1971
aS'their'
p1972
aS'my'
p1973
aS'your'
p1974
aS'own'
p1975
aS'need'
p1976
aS'...'
p1977
aS'should'
p1978
asS'event'
p1979
(lp1980
S'events'
p1981
aS'tournament'
p1982
aS'championships'
p1983
aS'olympics'
p1984
aS'world'
p1985
aS'organizers'
p1986
aS'venue'
p1987
aS'olympic'
p1988
asS'out'
p1989
(lp1990
S'up'
p1991
aS'put'
p1992
aS'back'
p1993
aS'off'
p1994
aS'away'
p1995
aS'so'
p1996
aS'just'
p1997
aS'but'
p1998
asS'jackson'
p1999
(lp2000
S'lewis'
p2001
aS'bryant'
p2002
aS'smith'
p2003
aS'johnson'
p2004
aS'allen'
p2005
aS'williams'
p2006
aS'moore'
p2007
aS'davis'
p2008
asS'missed'
p2009
(lp2010
S'misses'
p2011
aS'miss'
p2012
aS'injury'
p2013
aS'scored'
p2014
aS'shots'
p2015
aS'scoring'
p2016
aS'chances'
p2017
aS'chance'
p2018
asS'dsw'
p2019
(lp2020
S'ge'
p2021
aS'inheritors'
p2022
aS'fotso'
p2023
aS'brussow'
p2024
aS'yefim'
p2025
aS'zeenat'
p2026
aS'shuguang'
p2027
aS'hermeler'
p2028
asS'4pm'
p2029
(lp2030
S'funkhouser'
p2031
aS'zarifa'
p2032
aS'lyonpo'
p2033
aS'sabourin'
p2034
aS'hectored'
p2035
aS'abiodun'
p2036
aS'bhujbal'
p2037
aS'zoroastrianism'
p2038
asS'nepal'
p2039
(lp2040
S'nepali'
p2041
aS'bhutan'
p2042
aS'nepalese'
p2043
aS'kathmandu'
p2044
aS'bangladesh'
p2045
aS'maoist'
p2046
aS'thailand'
p2047
aS'cambodia'
p2048
asS'participants'
p2049
(lp2050
S'participate'
p2051
aS'attendees'
p2052
aS'participating'
p2053
aS'participation'
p2054
aS'attending'
p2055
aS'participant'
p2056
aS'delegates'
p2057
aS'students'
p2058
asS'surprise'
p2059
(lp2060
S'surprising'
p2061
aS'unexpected'
p2062
aS'surprised'
p2063
aS'announcement'
p2064
aS'surprises'
p2065
aS'disappointment'
p2066
aS'came'
p2067
aS'shock'
p2068
asS'showroom'
p2069
(lp2070
S'showrooms'
p2071
aS'dealership'
p2072
aS'furniture'
p2073
aS'boutique'
p2074
aS'dealerships'
p2075
aS'store'
p2076
aS'floors'
p2077
aS'midtown'
p2078
asS'kiel'
p2079
(lp2080
S'obscenities'
p2081
aS'euro47'
p2082
aS'c-47'
p2083
aS'tainter'
p2084
aS'leipzig'
p2085
aS'hamburg'
p2086
aS'mississauga'
p2087
asS'hairdresser'
p2088
(lp2089
S'stylist'
p2090
aS'samaritans'
p2091
aS'macartney'
p2092
aS'bartender'
p2093
aS'taiwo'
p2094
aS'barrasso'
p2095
aS'mallard'
p2096
aS'pharmacist'
p2097
asS'friday'
p2098
(lp2099
S'thursday'
p2100
aS'monday'
p2101
aS'tuesday'
p2102
aS'wednesday'
p2103
aS'saturday'
p2104
aS'sunday'
p2105
aS'week'
p2106
aS'afternoon'
p2107
asS'free'
p2108
(lp2109
S'freedom'
p2110
aS'without'
p2111
aS'available'
p2112
aS'allowed'
p2113
aS'give'
p2114
aS'access'
p2115
aS'unrestricted'
p2116
aS'go'
p2117
asS'fred'
p2118
(lp2119
S'thompson'
p2120
aS'nooses'
p2121
aS'tom'
p2122
aS'gary'
p2123
aS'smith'
p2124
aS'ron'
p2125
aS'blackhawk'
p2126
aS'eckhard'
p2127
asS'playing'
p2128
(lp2129
S'played'
p2130
aS'play'
p2131
aS'plays'
p2132
aS'player'
p2133
aS'players'
p2134
aS'game'
p2135
aS'matches'
p2136
aS'football'
p2137
asS'appointments'
p2138
(lp2139
S'appointment'
p2140
aS'appointees'
p2141
aS'decisions'
p2142
aS'judicial'
p2143
aS'posts'
p2144
aS'cabinet'
p2145
aS'appointing'
p2146
aS'assignments'
p2147
asS'york'
p2148
(lp2149
S'new'
p2150
aS'manhattan'
p2151
aS'n.y.'
p2152
aS'brooklyn'
p2153
aS'chicago'
p2154
aS'boston'
p2155
aS'jersey'
p2156
aS'angeles'
p2157
asS'put'
p2158
(lp2159
S'putting'
p2160
aS'out'
p2161
aS'should'
p2162
aS'up'
p2163
aS'could'
p2164
aS'would'
p2165
aS'take'
p2166
aS'them'
p2167
asS'philip'
p2168
(lp2169
S'morris'
p2170
aS'phillip'
p2171
aS'william'
p2172
aS'edward'
p2173
aS'henry'
p2174
aS'r.j.'
p2175
aS'j.'
p2176
aS'charles'
p2177
asS'wanted'
p2178
(lp2179
S'want'
p2180
aS'asked'
p2181
aS'did'
p2182
aS'wants'
p2183
aS'would'
p2184
aS'know'
p2185
aS'knew'
p2186
aS'decided'
p2187
asS'training'
p2188
(lp2189
S'trained'
p2190
aS'instructors'
p2191
aS'exercises'
p2192
aS'practice'
p2193
aS'skills'
p2194
aS'preparation'
p2195
aS'instructor'
p2196
aS'courses'
p2197
asS'prepare'
p2198
(lp2199
S'preparing'
p2200
aS'prepared'
p2201
aS'preparation'
p2202
aS'ready'
p2203
aS'preparations'
p2204
aS'prepares'
p2205
aS'help'
p2206
aS'take'
p2207
asS'could'
p2208
(lp2209
S'would'
p2210
aS'might'
p2211
aS'if'
p2212
aS'likely'
p2213
aS'not'
p2214
aS'can'
p2215
aS"n't"
p2216
aS'should'
p2217
asS'days'
p2218
(lp2219
S'weeks'
p2220
aS'months'
p2221
aS'hours'
p2222
aS'day'
p2223
aS'week'
p2224
aS'month'
p2225
aS'years'
p2226
aS'last'
p2227
asS'times'
p2228
(lp2229
S'twice'
p2230
aS'time'
p2231
aS'years'
p2232
aS'than'
p2233
aS'one'
p2234
aS'more'
p2235
aS'daily'
p2236
aS'last'
p2237
asS'birthday'
p2238
(lp2239
S'celebrating'
p2240
aS'celebrate'
p2241
aS'anniversary'
p2242
aS'50th'
p2243
aS'80th'
p2244
aS'celebration'
p2245
aS'celebrated'
p2246
aS'celebrations'
p2247
asS'damaris'
p2248
(lp2249
S'balilo'
p2250
aS'ugs'
p2251
aS'litem'
p2252
aS'apparels'
p2253
aS'sullenly'
p2254
aS'jarrard'
p2255
aS'podolsk'
p2256
aS'spore-bearing'
p2257
asS'austin'
p2258
(lp2259
S'texas'
p2260
aS'houston'
p2261
aS'dallas'
p2262
aS'statesman'
p2263
aS'atlanta'
p2264
aS'waco'
p2265
aS'writes'
p2266
aS'tx'
p2267
asS'first'
p2268
(lp2269
S'second'
p2270
aS'third'
p2271
aS'fourth'
p2272
aS'came'
p2273
aS'last'
p2274
aS'one'
p2275
aS'only'
p2276
aS'when'
p2277
asS'rang'
p2278
(lp2279
S'ringing'
p2280
aS'shard'
p2281
aS'gunshots'
p2282
aS'unanswered'
p2283
aS'shouts'
p2284
aS'bells'
p2285
aS'sounded'
p2286
aS'screams'
p2287
asS'flying'
p2288
(lp2289
S'flew'
p2290
aS'fly'
p2291
aS'aircraft'
p2292
aS'flight'
p2293
aS'planes'
p2294
aS'plane'
p2295
aS'flown'
p2296
aS'airplane'
p2297
asS'feel'
p2298
(lp2299
S'feeling'
p2300
aS'felt'
p2301
aS'feels'
p2302
aS'really'
p2303
aS'think'
p2304
aS"'re"
p2305
aS"'m"
p2306
aS'definitely'
p2307
asS'thesis'
p2308
(lp2309
S'dissertation'
p2310
aS'doctoral'
p2311
aS'phd'
p2312
aS'ph.d.'
p2313
aS'doctorate'
p2314
aS'38.5'
p2315
aS'panamanians'
p2316
aS'philosophy'
p2317
asS'walkers'
p2318
(lp2319
S'nanette'
p2320
aS'hikers'
p2321
aS'cyclists'
p2322
aS'bikers'
p2323
aS'37.1'
p2324
aS'runners'
p2325
aS'pedestrians'
p2326
aS'wheelchairs'
p2327
asS'one'
p2328
(lp2329
S'another'
p2330
aS'only'
p2331
aS'three'
p2332
aS'two'
p2333
aS'four'
p2334
aS'five'
p2335
aS'most'
p2336
aS'each'
p2337
asS'notify'
p2338
(lp2339
S'notified'
p2340
aS'notifying'
p2341
aS'inform'
p2342
aS'informing'
p2343
aS'alerting'
p2344
aS'telerate'
p2345
aS'notification'
p2346
aS'comply'
p2347
asS'spanish'
p2348
(lp2349
S'portuguese'
p2350
aS'spain'
p2351
aS'italian'
p2352
aS'french'
p2353
aS'mexican'
p2354
aS'catalan'
p2355
aS'english'
p2356
aS'spaniards'
p2357
asS'sounds'
p2358
(lp2359
S'sound'
p2360
aS'sounding'
p2361
aS'sounded'
p2362
aS'noises'
p2363
aS'loud'
p2364
aS'heard'
p2365
aS'hear'
p2366
aS'noise'
p2367
asS'tomorrow'
p2368
(lp2369
S"'ll"
p2370
aS'hopefully'
p2371
aS'tonight'
p2372
aS'today'
p2373
aS'wo'
p2374
aS'happen'
p2375
aS'next'
p2376
aS'expect'
p2377
asS'cannot'
p2378
(lp2379
S'must'
p2380
aS'can'
p2381
aS'should'
p2382
aS'not'
p2383
aS'able'
p2384
aS'if'
p2385
aS'could'
p2386
aS'therefore'
p2387
asS'festival'
p2388
(lp2389
S'festivals'
p2390
aS'fest'
p2391
aS'cannes'
p2392
aS'concert'
p2393
aS'celebration'
p2394
aS'concerts'
p2395
aS'music'
p2396
aS'film'
p2397
asS'teo'
p2398
(lp2399
S'remo'
p2400
aS'firmness'
p2401
aS'beckons'
p2402
aS'copernicus'
p2403
aS'romanesque'
p2404
aS'counterintuitive'
p2405
aS'palais'
p2406
aS'http://www.nature.com'
p2407
asS'their'
p2408
(lp2409
S'own'
p2410
aS'our'
p2411
aS'they'
p2412
aS'its'
p2413
aS'have'
p2414
aS'his'
p2415
aS'them'
p2416
aS'your'
p2417
asS'eddy'
p2418
(lp2419
S'cleaves'
p2420
aS'curry'
p2421
aS'charlatans'
p2422
aS'stute'
p2423
aS'102-year'
p2424
aS'duane'
p2425
aS'toal'
p2426
aS'azimuth'
p2427
asS'2'
p2428
(lp2429
S'3'
p2430
aS'4'
p2431
aS'1'
p2432
aS'5'
p2433
aS'6'
p2434
aS'7'
p2435
aS'8'
p2436
aS'9'
p2437
asS'tell'
p2438
(lp2439
S'know'
p2440
aS'telling'
p2441
aS'why'
p2442
aS'ask'
p2443
aS'you'
p2444
aS'me'
p2445
aS"n't"
p2446
asS'tom'
p2447
(lp2448
S'bob'
p2449
aS'thomas'
p2450
aS'jim'
p2451
aS'greg'
p2452
aS'jack'
p2453
aS'steve'
p2454
aS'hanks'
p2455
aS'nick'
p2456
asS'white'
p2457
(lp2458
S'black'
p2459
aS'red'
p2460
aS'blue'
p2461
aS'house'
p2462
aS'brown'
p2463
aS'yellow'
p2464
aS'pink'
p2465
aS'colored'
p2466
asS'perfectly'
p2467
(lp2468
S'beautifully'
p2469
aS'nicely'
p2470
aS'fit'
p2471
aS'perfect'
p2472
aS'reasonably'
p2473
aS'neatly'
p2474
aS'quite'
p2475
aS'ideally'
p2476
asS'friend'
p2477
(lp2478
S'friends'
p2479
aS'husband'
p2480
aS'boyfriend'
p2481
aS'lover'
p2482
aS'father'
p2483
aS'wife'
p2484
aS'girlfriend'
p2485
aS'brother'
p2486
asS'a'
p2487
(lp2488
S'another'
p2489
aS'this'
p2490
aS'one'
p2491
aS'is'
p2492
aS'first'
p2493
aS'same'
p2494
aS'kind'
p2495
aS'only'
p2496
asS'that'
p2497
(lp2498
S'but'
p2499
aS'what'
p2500
aS'which'
p2501
aS'it'
p2502
aS'because'
p2503
aS'this'
p2504
aS'not'
p2505
aS'would'
p2506
asS'gym'
p2507
(lp2508
S'gyms'
p2509
aS'gymnasium'
p2510
aS'workout'
p2511
aS'cafeteria'
p2512
aS'locker'
p2513
aS'fitness'
p2514
aS'room'
p2515
aS'workouts'
p2516
asS'suit'
p2517
(lp2518
S'suits'
p2519
aS'lawsuit'
p2520
aS'filed'
p2521
aS'lawsuits'
p2522
aS'sued'
p2523
aS'complaint'
p2524
aS'jacket'
p2525
aS'wearing'
p2526
asS'park'
p2527
(lp2528
S'parks'
p2529
aS'recreation'
p2530
aS'forest'
p2531
aS'amusement'
p2532
aS'gardens'
p2533
aS'adjacent'
p2534
aS'avenue'
p2535
aS'located'
p2536
asS'released'
p2537
(lp2538
S'release'
p2539
aS'releasing'
p2540
aS'releases'
p2541
aS'album'
p2542
aS'ep'
p2543
aS'compilation'
p2544
aS'albums'
p2545
aS'self-titled'
p2546
asS'dentist'
p2547
(lp2548
S'pharmacist'
p2549
aS'surgeon'
p2550
aS'pediatrician'
p2551
aS'physician'
p2552
aS'cormorants'
p2553
aS'utilising'
p2554
aS'dentists'
p2555
aS'doctor'
p2556
asS'jordan'
p2557
(lp2558
S'egypt'
p2559
aS'kuwait'
p2560
aS'amman'
p2561
aS'jordanian'
p2562
aS'syria'
p2563
aS'arabia'
p2564
aS'saudi'
p2565
aS'israel'
p2566
asS'bieber'
p2567
(lp2568
S'amrozi'
p2569
aS'kuebler'
p2570
aS'rahmani'
p2571
aS'.71'
p2572
aS'fuhz'
p2573
aS'yug'
p2574
aS'chiefdom'
p2575
aS'1-14'
p2576
asS'helen'
p2577
(lp2578
S'margaret'
p2579
aS'dorothy'
p2580
aS'julia'
p2581
aS'elizabeth'
p2582
aS'jane'
p2583
aS'mirren'
p2584
aS'mary'
p2585
asS'theater'
p2586
(lp2587
S'theatre'
p2588
aS'broadway'
p2589
aS'theaters'
p2590
aS'cinema'
p2591
aS'theatres'
p2592
aS'repertory'
p2593
aS'theatrical'
p2594
aS'musical'
p2595
asS'july'
p2596
(lp2597
S'april'
p2598
aS'june'
p2599
aS'october'
p2600
aS'september'
p2601
aS'february'
p2602
aS'august'
p2603
aS'december'
p2604
aS'january'
p2605
asS'11'
p2606
(lp2607
S'13'
p2608
aS'12'
p2609
aS'14'
p2610
aS'19'
p2611
aS'16'
p2612
aS'17'
p2613
aS'22'
p2614
aS'10'
p2615
asS'10'
p2616
(lp2617
S'15'
p2618
aS'20'
p2619
aS'12'
p2620
aS'14'
p2621
aS'13'
p2622
aS'16'
p2623
aS'30'
p2624
aS'11'
p2625
asS'trek'
p2626
(lp2627
S'journey'
p2628
aS'four-year-old'
p2629
aS'adventure'
p2630
aS'voyager'
p2631
aS'journeys'
p2632
aS'arduous'
p2633
aS'sci'
p2634
aS'gloster'
p2635
asS'john'
p2636
(lp2637
S'james'
p2638
aS'thomas'
p2639
aS'george'
p2640
aS'edward'
p2641
aS'william'
p2642
aS'sir'
p2643
aS'robert'
p2644
aS'f.'
p2645
asS'15'
p2646
(lp2647
S'20'
p2648
aS'16'
p2649
aS'14'
p2650
aS'10'
p2651
aS'12'
p2652
aS'13'
p2653
aS'17'
p2654
aS'30'
p2655
asS'14'
p2656
(lp2657
S'13'
p2658
aS'16'
p2659
aS'17'
p2660
aS'12'
p2661
aS'19'
p2662
aS'15'
p2663
aS'21'
p2664
aS'22'
p2665
asS'17'
p2666
(lp2667
S'19'
p2668
aS'21'
p2669
aS'16'
p2670
aS'13'
p2671
aS'14'
p2672
aS'22'
p2673
aS'23'
p2674
aS'27'
p2675
asS'tavern'
p2676
(lp2677
S'pub'
p2678
aS'inn'
p2679
aS'restaurant'
p2680
aS'cafe'
p2681
aS'diner'
p2682
aS'zarate'
p2683
aS'midas'
p2684
asS'boring'
p2685
(lp2686
S'tedious'
p2687
aS'dull'
p2688
aS'bored'
p2689
aS'pirating'
p2690
aS'roxas'
p2691
aS'stuff'
p2692
aS'1,350'
p2693
aS'downright'
p2694
asS'monger'
p2695
(lp2696
S'chesler'
p2697
aS'lhote'
p2698
aS'ifs'
p2699
aS'digamber'
p2700
aS'pantomiming'
p2701
aS'dustov'
p2702
aS'theyyam'
p2703
aS'chinedu'
p2704
asS'bed'
p2705
(lp2706
S'beds'
p2707
aS'sleeping'
p2708
aS'bedroom'
p2709
aS'slept'
p2710
aS'sleep'
p2711
aS'asleep'
p2712
aS'bunk'
p2713
aS'room'
p2714
asS'supposed'
p2715
(lp2716
S'meant'
p2717
aS"n't"
p2718
aS'sure'
p2719
aS'come'
p2720
aS'should'
p2721
aS'know'
p2722
aS'actually'
p2723
aS'want'
p2724
asS'cards'
p2725
(lp2726
S'card'
p2727
aS'debit'
p2728
aS'id'
p2729
aS'passports'
p2730
aS'credit'
p2731
aS'prepaid'
p2732
aS'identification'
p2733
aS'greeting'
p2734
asS'dunmore'
p2735
(lp2736
S'lepus'
p2737
aS'cheapness'
p2738
aS'regimented'
p2739
aS'ashoka'
p2740
aS'touchingly'
p2741
aS'unenforceable'
p2742
aS'planet'
p2743
aS'nigro'
p2744
asS'powers'
p2745
(lp2746
S'power'
p2747
aS'abilities'
p2748
aS'authority'
p2749
aS'ability'
p2750
aS'delegated'
p2751
aS'supernatural'
p2752
aS'influence'
p2753
aS'control'
p2754
asS'and'
p2755
(lp2756
S'both'
p2757
aS'well'
p2758
aS','
p2759
aS'also'
p2760
aS'including'
p2761
aS'all'
p2762
aS'other'
p2763
aS'.'
p2764
asS'san'
p2765
(lp2766
S'francisco'
p2767
aS'diego'
p2768
aS'antonio'
p2769
aS'california'
p2770
aS'angeles'
p2771
aS'sacramento'
p2772
aS'los'
p2773
aS'calif.'
p2774
asS'sam'
p2775
(lp2776
S'lee'
p2777
aS'jack'
p2778
aS'smith'
p2779
aS'kim'
p2780
aS'rainsy'
p2781
aS'shepard'
p2782
aS'taylor'
p2783
aS'liuzzi'
p2784
asS'well'
p2785
(lp2786
S'both'
p2787
aS'so'
p2788
aS'and'
p2789
aS'but'
p2790
aS'very'
p2791
aS'also'
p2792
aS'especially'
p2793
aS'all'
p2794
asS'mine'
p2795
(lp2796
S'mines'
p2797
aS'coal'
p2798
aS'mining'
p2799
aS'miners'
p2800
aS'miner'
p2801
aS'explosion'
p2802
aS'copper'
p2803
aS'shaft'
p2804
asS'tonight'
p2805
(lp2806
S'night'
p2807
aS'tomorrow'
p2808
aS"'ll"
p2809
aS'hopefully'
p2810
aS'maybe'
p2811
aS'everybody'
p2812
aS'show'
p2813
aS'nights'
p2814
asS'defending'
p2815
(lp2816
S'champion'
p2817
aS'champions'
p2818
aS'reigning'
p2819
aS'titlist'
p2820
aS'defend'
p2821
aS'beating'
p2822
aS'defeating'
p2823
aS'title'
p2824
asS'have'
p2825
(lp2826
S'they'
p2827
aS'been'
p2828
aS'had'
p2829
aS'already'
p2830
aS'has'
p2831
aS'having'
p2832
aS'many'
p2833
aS'those'
p2834
asS'need'
p2835
(lp2836
S'needs'
p2837
aS'needed'
p2838
aS'must'
p2839
aS'should'
p2840
aS'we'
p2841
aS'want'
p2842
aS'get'
p2843
aS'do'
p2844
asS'breakfast'
p2845
(lp2846
S'dinner'
p2847
aS'lunch'
p2848
aS'breakfasts'
p2849
aS'meals'
p2850
aS'meal'
p2851
aS'brunch'
p2852
aS'buffet'
p2853
aS'dinners'
p2854
asS'saw'
p2855
(lp2856
S'seeing'
p2857
aS'came'
p2858
aS'seen'
p2859
aS'coming'
p2860
aS'when'
p2861
aS'see'
p2862
aS'went'
p2863
aS'they'
p2864
asS'any'
p2865
(lp2866
S'no'
p2867
aS'not'
p2868
aS'anything'
p2869
aS'if'
p2870
aS'without'
p2871
aS'only'
p2872
aS'possible'
p2873
aS'does'
p2874
asS'florian'
p2875
(lp2876
S'fritz'
p2877
aS'yannick'
p2878
aS'mayer'
p2879
aS'christophe'
p2880
aS'philipp'
p2881
aS'41.44'
p2882
aS'stefan'
p2883
aS'worthiness'
p2884
asS'scotland'
p2885
(lp2886
S'scottish'
p2887
aS'wales'
p2888
aS'ireland'
p2889
aS'glasgow'
p2890
aS'edinburgh'
p2891
aS'england'
p2892
aS'scots'
p2893
aS'aberdeen'
p2894
asS'snow'
p2895
(lp2896
S'rain'
p2897
aS'snowfall'
p2898
aS'fog'
p2899
aS'winter'
p2900
aS'mountain'
p2901
aS'visconti'
p2902
aS'snowstorm'
p2903
aS'ice'
p2904
asS'also'
p2905
(lp2906
S'both'
p2907
aS'although'
p2908
aS'as'
p2909
aS'well'
p2910
aS'has'
p2911
aS'that'
p2912
aS'which'
p2913
aS'however'
p2914
asS'niece'
p2915
(lp2916
S'granddaughter'
p2917
aS'daughter'
p2918
aS'nephew'
p2919
aS'aunt'
p2920
aS'grandmother'
p2921
aS'cousin'
p2922
aS'espn.com'
p2923
aS'sister'
p2924
asS'which'
p2925
(lp2926
S'that'
p2927
aS'it'
p2928
aS'also'
p2929
aS'this'
p2930
aS'the'
p2931
aS'part'
p2932
aS'same'
p2933
aS'only'
p2934
asS'play'
p2935
(lp2936
S'playing'
p2937
aS'played'
p2938
aS'plays'
p2939
aS'game'
p2940
aS'players'
p2941
aS'player'
p2942
aS'match'
p2943
aS'matches'
p2944
asS'though'
p2945
(lp2946
S'although'
p2947
aS'but'
p2948
aS'however'
p2949
aS'even'
p2950
aS'because'
p2951
aS'yet'
p2952
aS'fact'
p2953
aS'still'
p2954
asS'209'
p2955
(lp2956
S'215'
p2957
aS'211'
p2958
aS'227'
p2959
aS'187'
p2960
aS'208'
p2961
aS'204'
p2962
aS'219'
p2963
aS'216'
p2964
asS'who'
p2965
(lp2966
S'whom'
p2967
aS'he'
p2968
aS'also'
p2969
aS'have'
p2970
aS'once'
p2971
aS'had'
p2972
aS'young'
p2973
aS'they'
p2974
asS'germany'
p2975
(lp2976
S'german'
p2977
aS'austria'
p2978
aS'berlin'
p2979
aS'europe'
p2980
aS'munich'
p2981
aS'poland'
p2982
aS'switzerland'
p2983
aS'germans'
p2984
asS'plan'
p2985
(lp2986
S'plans'
p2987
aS'proposal'
p2988
aS'proposed'
p2989
aS'proposals'
p2990
aS'planned'
p2991
aS'strategy'
p2992
aS'planning'
p2993
aS'would'
p2994
asS'nothing'
p2995
(lp2996
S'anything'
p2997
aS'something'
p2998
aS'else'
p2999
aS"n't"
p3000
aS'what'
p3001
aS'certainly'
p3002
aS'thing'
p3003
aS'really'
p3004
asS'the'
p3005
(lp3006
S'of'
p3007
aS'which'
p3008
aS'this'
p3009
aS'part'
p3010
aS'same'
p3011
aS'its'
p3012
aS'first'
p3013
aS'in'
p3014
asS'workshop'
p3015
(lp3016
S'workshops'
p3017
aS'seminar'
p3018
aS'seminars'
p3019
aS'symposium'
p3020
aS'theatre'
p3021
aS'cupid'
p3022
aS'forum'
p3023
aS'exhibition'
p3024
asS'7am'
p3025
(lp3026
S'callup'
p3027
aS'tareq'
p3028
aS'nadarajah'
p3029
aS'pontianak'
p3030
aS'outpunched'
p3031
aS'glur'
p3032
aS'velzy'
p3033
aS'crighton'
p3034
asS'galway'
p3035
(lp3036
S'limerick'
p3037
aS'kilkenny'
p3038
aS'tipperary'
p3039
aS'wexford'
p3040
aS'cork'
p3041
aS'waterford'
p3042
aS'trailhead'
p3043
aS'sligo'
p3044
asS'don'
p3045
(lp3046
S'quixote'
p3047
aS'antonio'
p3048
aS'joe'
p3049
aS'donald'
p3050
aS'nickles'
p3051
aS'jim'
p3052
aS'doug'
p3053
aS'nelson'
p3054
asS'egemen'
p3055
(lp3056
S'dalt'
p3057
aS'areala'
p3058
aS'estopped'
p3059
aS'morrocan'
p3060
aS'www.youtube.com'
p3061
aS'groothuis'
p3062
aS'milicja'
p3063
aS'incentivise'
p3064
asS'alarm'
p3065
(lp3066
S'alarms'
p3067
aS'warning'
p3068
aS'alert'
p3069
aS'distress'
p3070
aS'panic'
p3071
aS'concern'
p3072
aS'sounded'
p3073
aS'warn'
p3074
asS'later'
p3075
(lp3076
S'subsequently'
p3077
aS'then'
p3078
aS'after'
p3079
aS'when'
p3080
aS'before'
p3081
aS'soon'
p3082
aS'shortly'
p3083
aS'eventually'
p3084
asS'request'
p3085
(lp3086
S'requested'
p3087
aS'requests'
p3088
aS'requesting'
p3089
aS'asked'
p3090
aS'asking'
p3091
aS'ask'
p3092
aS'refused'
p3093
aS'rejected'
p3094
asS'dog'
p3095
(lp3096
S'dogs'
p3097
aS'cat'
p3098
aS'pet'
p3099
aS'puppy'
p3100
aS'hound'
p3101
aS'horse'
p3102
aS'animal'
p3103
aS'cats'
p3104
asS'mrs'
p3105
(lp3106
S'mr'
p3107
aS'mrs.'
p3108
aS'margaret'
p3109
aS'sydenham'
p3110
aS'widow'
p3111
aS'aunt'
p3112
aS'eliza'
p3113
asS'10am'
p3114
(lp3115
S'upington'
p3116
aS'torrijos'
p3117
aS'mahonia'
p3118
aS'monash'
p3119
aS'shbak'
p3120
aS'steadied'
p3121
asS'sunset'
p3122
(lp3123
S'sunrise'
p3124
aS'boulevard'
p3125
aS'dusk'
p3126
aS'dawn'
p3127
aS'midnight'
p3128
aS'daylight'
p3129
aS'sundown'
p3130
aS'twilight'
p3131
asS'bateman'
p3132
(lp3133
S'36.46'
p3134
aS'justine'
p3135
aS'eller'
p3136
aS'elation'
p3137
aS'allan'
p3138
aS'propagating'
p3139
aS'mais'
p3140
aS'12.31'
p3141
asS'anything'
p3142
(lp3143
S'nothing'
p3144
aS'something'
p3145
aS"n't"
p3146
aS'else'
p3147
aS'anyone'
p3148
aS'anybody'
p3149
aS'know'
p3150
aS'things'
p3151
asS'thomas'
p3152
(lp3153
S'william'
p3154
aS'john'
p3155
aS'davis'
p3156
aS'james'
p3157
aS'tom'
p3158
aS'francis'
p3159
aS'j.'
p3160
aS'henry'
p3161
asS'show'
p3162
(lp3163
S'shows'
p3164
aS'shown'
p3165
aS'showed'
p3166
aS'showing'
p3167
aS'tv'
p3168
aS'television'
p3169
aS'aired'
p3170
aS'episode'
p3171
asS'meetings'
p3172
(lp3173
S'meeting'
p3174
aS'discussions'
p3175
aS'conferences'
p3176
aS'talks'
p3177
aS'conference'
p3178
aS'discuss'
p3179
aS'informal'
p3180
aS'leaders'
p3181
asS'reschedule'
p3182
(lp3183
S'rescheduling'
p3184
aS'rescheduled'
p3185
aS'cancel'
p3186
aS'postpone'
p3187
aS'canceling'
p3188
aS'cancelling'
p3189
aS'repay'
p3190
aS'canceled'
p3191
asS'session'
p3192
(lp3193
S'sessions'
p3194
aS'plenary'
p3195
aS'meeting'
p3196
aS'day'
p3197
aS'afternoon'
p3198
aS'morning'
p3199
aS'week'
p3200
aS'opening'
p3201
asS'participate'
p3202
(lp3203
S'participating'
p3204
aS'participation'
p3205
aS'participated'
p3206
aS'participants'
p3207
aS'attend'
p3208
aS'invited'
p3209
aS'join'
p3210
aS'engage'
p3211
asS'tuesdays'
p3212
(lp3213
S'thursdays'
p3214
aS'mondays'
p3215
aS'wednesdays'
p3216
aS'saturdays'
p3217
aS'fridays'
p3218
aS'sundays'
p3219
aS'weekdays'
p3220
aS'multistate'
p3221
asS'rescheduling'
p3222
(lp3223
S'reschedule'
p3224
aS'repayment'
p3225
aS'repayments'
p3226
aS'cancellation'
p3227
aS'creditors'
p3228
aS'canceling'
p3229
aS'cancelling'
p3230
aS'rescheduled'
p3231
asS'shoes'
p3232
(lp3233
S'sneakers'
p3234
aS'shoe'
p3235
aS'boots'
p3236
aS'clothes'
p3237
aS'socks'
p3238
aS'clothing'
p3239
aS'footwear'
p3240
aS'leather'
p3241
asS'slot'
p3242
(lp3243
S'slots'
p3244
aS'spot'
p3245
aS'shorty'
p3246
aS'card'
p3247
aS'primetime'
p3248
aS'machines'
p3249
aS'spots'
p3250
aS'blackjack'
p3251
asS'5pm'
p3252
(lp3253
S'reggie'
p3254
aS'unscripted'
p3255
aS'13-week'
p3256
aS'forgettable'
p3257
aS'mcelroy'
p3258
aS'eakins'
p3259
aS'ghar'
p3260
aS'redshirt'
p3261
asS'title'
p3262
(lp3263
S'titles'
p3264
aS'championship'
p3265
aS'champion'
p3266
aS'champions'
p3267
aS'final'
p3268
aS'reigning'
p3269
aS'win'
p3270
aS'championships'
p3271
asS'daily'
p3272
(lp3273
S'newspaper'
p3274
aS'weekly'
p3275
aS'newspapers'
p3276
aS'reported'
p3277
aS'news'
p3278
aS'times'
p3279
aS'editorial'
p3280
aS'dailies'
p3281
asS'should'
p3282
(lp3283
S'must'
p3284
aS'would'
p3285
aS'not'
p3286
aS'if'
p3287
aS'will'
p3288
aS'want'
p3289
aS'need'
p3290
aS'be'
p3291
asS'terminal'
p3292
(lp3293
S'terminals'
p3294
aS'airport'
p3295
aS'concourse'
p3296
aS'container'
p3297
aS'freight'
p3298
aS'passenger'
p3299
aS'cargo'
p3300
aS'port'
p3301
asS'only'
p3302
(lp3303
S'but'
p3304
aS'one'
p3305
aS'not'
p3306
aS'even'
p3307
aS'though'
p3308
aS'although'
p3309
aS'no'
p3310
aS'all'
p3311
asS'going'
p3312
(lp3313
S'go'
p3314
aS"'re"
p3315
aS'we'
p3316
aS"'ll"
p3317
aS"n't"
p3318
aS'think'
p3319
aS'really'
p3320
aS'you'
p3321
asS'8'
p3322
(lp3323
S'9'
p3324
aS'7'
p3325
aS'6'
p3326
aS'5'
p3327
aS'4'
p3328
aS'3'
p3329
aS'12'
p3330
aS'10'
p3331
asS'do'
p3332
(lp3333
S"n't"
p3334
aS'want'
p3335
aS'you'
p3336
aS'know'
p3337
aS'does'
p3338
aS'not'
p3339
aS'wo'
p3340
asS'his'
p3341
(lp3342
S'he'
p3343
aS'her'
p3344
aS'own'
p3345
aS'him'
p3346
aS'my'
p3347
aS'father'
p3348
aS'whose'
p3349
aS'their'
p3350
asS'get'
p3351
(lp3352
S'getting'
p3353
aS'got'
p3354
aS'you'
p3355
aS"n't"
p3356
aS'want'
p3357
aS"'ll"
p3358
aS'so'
p3359
aS'going'
p3360
asS'merkel'
p3361
(lp3362
S'schroeder'
p3363
aS'sarkozy'
p3364
aS'angela'
p3365
aS'chancellor'
p3366
aS'steinmeier'
p3367
aS'barroso'
p3368
aS'gerhard'
p3369
aS'chirac'
p3370
asS'hopefully'
p3371
(lp3372
S"'ll"
p3373
aS'definitely'
p3374
aS'maybe'
p3375
aS'tomorrow'
p3376
aS'happen'
p3377
aS'going'
p3378
aS'certainly'
p3379
aS'sooner'
p3380
asS'watch'
p3381
(lp3382
S'watching'
p3383
aS'watched'
p3384
aS'watches'
p3385
aS"'ll"
p3386
aS'wait'
p3387
aS'sit'
p3388
aS'listen'
p3389
aS'look'
p3390
asS'colleagues'
p3391
(lp3392
S'colleague'
p3393
aS'friends'
p3394
aS'fellow'
p3395
aS'researchers'
p3396
aS'others'
p3397
aS'members'
p3398
aS'scientists'
p3399
aS'professors'
p3400
asS'12'
p3401
(lp3402
S'14'
p3403
aS'16'
p3404
aS'13'
p3405
aS'15'
p3406
aS'10'
p3407
aS'17'
p3408
aS'11'
p3409
aS'19'
p3410
asS'wedding'
p3411
(lp3412
S'bride'
p3413
aS'weddings'
p3414
aS'birthday'
p3415
aS'dinner'
p3416
aS'couple'
p3417
aS'marriage'
p3418
aS'pavle'
p3419
aS'funeral'
p3420
asS'report'
p3421
(lp3422
S'reports'
p3423
aS'reported'
p3424
aS'according'
p3425
aS'findings'
p3426
aS'reporting'
p3427
aS'cited'
p3428
aS'statement'
p3429
aS'press'
p3430
asS'johanna'
p3431
(lp3432
S'foxtrot'
p3433
aS'famas'
p3434
aS'elisabeth'
p3435
aS'susanna'
p3436
aS'dorothea'
p3437
aS'vilks'
p3438
aS'paullus'
p3439
aS'cthulhu'
p3440
asS'dr'
p3441
(lp3442
S'dr.'
p3443
aS'canaries'
p3444
aS'prof.'
p3445
aS'mr'
p3446
aS'datuk'
p3447
aS'reverend'
p3448
aS'seri'
p3449
aS'rev'
p3450
asS'him'
p3451
(lp3452
S'them'
p3453
aS'he'
p3454
aS'himself'
p3455
aS'me'
p3456
aS'his'
p3457
aS'then'
p3458
aS'someone'
p3459
aS'when'
p3460
asS'budapest'
p3461
(lp3462
S'warsaw'
p3463
aS'prague'
p3464
aS'vienna'
p3465
aS'bratislava'
p3466
aS'bucharest'
p3467
aS'hungary'
p3468
aS'hungarian'
p3469
aS'ljubljana'
p3470
asS'bar'
p3471
(lp3472
S'bars'
p3473
aS'restaurant'
p3474
aS'cafe'
p3475
aS'pub'
p3476
aS'lounge'
p3477
aS'restaurants'
p3478
aS'dining'
p3479
aS'room'
p3480
asS'held'
p3481
(lp3482
S'hold'
p3483
aS'holding'
p3484
aS'holds'
p3485
aS'meetings'
p3486
aS'meeting'
p3487
aS'in'
p3488
aS'place'
p3489
aS'scheduled'
p3490
asS'taxes'
p3491
(lp3492
S'tax'
p3493
aS'income'
p3494
aS'paying'
p3495
aS'taxation'
p3496
aS'pay'
p3497
aS'revenues'
p3498
aS'fees'
p3499
aS'excise'
p3500
asS'morning'
p3501
(lp3502
S'afternoon'
p3503
aS'evening'
p3504
aS'friday'
p3505
aS'monday'
p3506
aS'thursday'
p3507
aS'night'
p3508
aS'sunday'
p3509
aS'tuesday'
p3510
asS'stuff'
p3511
(lp3512
S'things'
p3513
aS'thing'
p3514
aS'really'
p3515
aS'guys'
p3516
aS'lot'
p3517
aS'anymore'
p3518
aS'everything'
p3519
aS'something'
p3520
asS'she'
p3521
(lp3522
S'her'
p3523
aS'he'
p3524
aS'herself'
p3525
aS'mother'
p3526
aS'woman'
p3527
aS'then'
p3528
aS'never'
p3529
aS'when'
p3530
asS'through'
p3531
(lp3532
S'way'
p3533
aS'into'
p3534
aS'across'
p3535
aS'past'
p3536
aS'via'
p3537
aS'out'
p3538
aS'back'
p3539
aS'along'
p3540
asS'river'
p3541
(lp3542
S'rivers'
p3543
aS'tributary'
p3544
aS'creek'
p3545
aS'valley'
p3546
aS'confluence'
p3547
aS'estuary'
p3548
aS'flows'
p3549
aS'tributaries'
p3550
asS'where'
p3551
(lp3552
S'in'
p3553
aS'outside'
p3554
aS'near'
p3555
aS'here'
p3556
aS'there'
p3557
aS'they'
p3558
aS'same'
p3559
aS'.'
p3560
asS'view'
p3561
(lp3562
S'views'
p3563
aS'viewed'
p3564
aS'perspective'
p3565
aS'regard'
p3566
aS'viewpoint'
p3567
aS'fact'
p3568
aS'what'
p3569
aS'look'
p3570
asS'set'
p3571
(lp3572
S'setting'
p3573
aS'sets'
p3574
aS'up'
p3575
aS'put'
p3576
aS'break'
p3577
aS'next'
p3578
aS'time'
p3579
aS'own'
p3580
asS'concert'
p3581
(lp3582
S'concerts'
p3583
aS'performances'
p3584
aS'orchestra'
p3585
aS'music'
p3586
aS'gala'
p3587
aS'premiere'
p3588
aS'recital'
p3589
aS'performed'
p3590
asS'see'
p3591
(lp3592
S'you'
p3593
aS'what'
p3594
aS'come'
p3595
aS'look'
p3596
aS"n't"
p3597
aS'think'
p3598
aS'want'
p3599
aS'seeing'
p3600
asS'decided'
p3601
(lp3602
S'decide'
p3603
aS'would'
p3604
aS'decision'
p3605
aS'chose'
p3606
aS'agreed'
p3607
aS'asked'
p3608
aS'wanted'
p3609
aS'to'
p3610
asS'are'
p3611
(lp3612
S'these'
p3613
aS'those'
p3614
aS'many'
p3615
aS'they'
p3616
aS'be'
p3617
aS'have'
p3618
aS'all'
p3619
aS'were'
p3620
asS'calendar'
p3621
(lp3622
S'calendars'
p3623
aS'gregorian'
p3624
aS'schedule'
p3625
aS'depolarization'
p3626
aS'date'
p3627
aS'dates'
p3628
aS'excising'
p3629
aS'liturgical'
p3630
asS'tomorrowland'
p3631
(lp3632
S'marville'
p3633
aS'magnates'
p3634
aS'cermak'
p3635
aS'clumber'
p3636
aS'mahlsdorf'
p3637
aS'thiemo'
p3638
aS'froot'
p3639
aS'shifan'
p3640
asS'00'
p3641
(lp3642
S'01'
p3643
aS'03'
p3644
aS'09'
p3645
aS'02'
p3646
aS'06'
p3647
aS'05'
p3648
aS'07'
p3649
aS'prefix'
p3650
asS'pictures'
p3651
(lp3652
S'photographs'
p3653
aS'images'
p3654
aS'picture'
p3655
aS'photos'
p3656
aS'photograph'
p3657
aS'photo'
p3658
aS'films'
p3659
aS'videos'
p3660
asS'please'
p3661
(lp3662
S'ask'
p3663
aS'call'
p3664
aS'you'
p3665
aS'want'
p3666
aS'tell'
p3667
aS'let'
p3668
aS'wish'
p3669
aS'me'
p3670
asS'forecast'
p3671
(lp3672
S'forecasts'
p3673
aS'predicted'
p3674
aS'forecasting'
p3675
aS'predicting'
p3676
aS'projected'
p3677
aS'projections'
p3678
aS'estimate'
p3679
aS'analysts'
p3680
asS'3'
p3681
(lp3682
S'2'
p3683
aS'4'
p3684
aS'5'
p3685
aS'6'
p3686
aS'1'
p3687
aS'7'
p3688
aS'8'
p3689
aS'9'
p3690
asS'won'
p3691
(lp3692
S'winning'
p3693
aS'win'
p3694
aS'wins'
p3695
aS'winner'
p3696
aS'victory'
p3697
aS'champion'
p3698
aS'victories'
p3699
aS'winners'
p3700
asS'closed'
p3701
(lp3702
S'closing'
p3703
aS'opened'
p3704
aS'reopened'
p3705
aS'close'
p3706
aS'shut'
p3707
aS'closes'
p3708
aS'down'
p3709
aS'ended'
p3710
asS'between'
p3711
(lp3712
S'sides'
p3713
aS'both'
p3714
aS'two'
p3715
aS'differences'
p3716
aS'which'
p3717
aS'conflict'
p3718
aS'relationship'
p3719
aS'and'
p3720
asS'reading'
p3721
(lp3722
S'read'
p3723
aS'writing'
p3724
aS'reads'
p3725
aS'book'
p3726
aS'comprehension'
p3727
aS'readings'
p3728
aS'listening'
p3729
aS'books'
p3730
asS'involved'
p3731
(lp3732
S'involving'
p3733
aS'involve'
p3734
aS'involvement'
p3735
aS'engaged'
p3736
aS'responsible'
p3737
aS'activities'
p3738
aS'involves'
p3739
aS'interested'
p3740
asS'available'
p3741
(lp3742
S'provide'
p3743
aS'only'
p3744
aS'provided'
p3745
aS'use'
p3746
aS'offer'
p3747
aS'access'
p3748
aS'information'
p3749
aS'limited'
p3750
asS'we'
p3751
(lp3752
S'going'
p3753
aS'know'
p3754
aS'think'
p3755
aS"'ve"
p3756
aS'i'
p3757
aS"n't"
p3758
aS'they'
p3759
aS'you'
p3760
asS'august'
p3761
(lp3762
S'february'
p3763
aS'october'
p3764
aS'september'
p3765
aS'january'
p3766
aS'december'
p3767
aS'july'
p3768
aS'november'
p3769
aS'april'
p3770
asS'extend'
p3771
(lp3772
S'extending'
p3773
aS'extended'
p3774
aS'extends'
p3775
aS'extension'
p3776
aS'expand'
p3777
aS'allow'
p3778
aS'beyond'
p3779
aS'mandate'
p3780
asS'nashville'
p3781
(lp3782
S'memphis'
p3783
aS'tenn.'
p3784
aS'tennessee'
p3785
aS'knoxville'
p3786
aS'chattanooga'
p3787
aS'louisville'
p3788
aS'dallas'
p3789
aS'philadelphia'
p3790
asS'come'
p3791
(lp3792
S'coming'
p3793
aS'go'
p3794
aS"n't"
p3795
aS'we'
p3796
aS'going'
p3797
aS'they'
p3798
aS'want'
p3799
aS"'ll"
p3800
asS'daddy'
p3801
(lp3802
S'mommy'
p3803
aS'mama'
p3804
aS'dad'
p3805
aS'mom'
p3806
aS'policed'
p3807
aS'puff'
p3808
aS'hey'
p3809
aS'kid'
p3810
asS'rugby'
p3811
(lp3812
S'cricket'
p3813
aS'football'
p3814
aS'wales'
p3815
aS'sevens'
p3816
aS'footballer'
p3817
aS'club'
p3818
aS'soccer'
p3819
aS'league'
p3820
asS'restaurant'
p3821
(lp3822
S'restaurants'
p3823
aS'cafe'
p3824
aS'dining'
p3825
aS'deri'
p3826
aS'hotel'
p3827
aS'chef'
p3828
aS'bakery'
p3829
aS'diner'
p3830
asS'many'
p3831
(lp3832
S'some'
p3833
aS'few'
p3834
aS'several'
p3835
aS'other'
p3836
aS'most'
p3837
aS'these'
p3838
aS'those'
p3839
aS'have'
p3840
asS'invited'
p3841
(lp3842
S'invite'
p3843
aS'attend'
p3844
aS'invitation'
p3845
aS'participate'
p3846
aS'guests'
p3847
aS'met'
p3848
aS'inviting'
p3849
aS'join'
p3850
asS'display'
p3851
(lp3852
S'displays'
p3853
aS'displayed'
p3854
aS'displaying'
p3855
aS'exhibit'
p3856
aS'exhibits'
p3857
aS'screens'
p3858
aS'showing'
p3859
aS'screen'
p3860
asS'april'
p3861
(lp3862
S'june'
p3863
aS'october'
p3864
aS'july'
p3865
aS'february'
p3866
aS'september'
p3867
aS'november'
p3868
aS'december'
p3869
aS'january'
p3870
asS's'
p3871
(lp3872
S'217-seat'
p3873
aS'pristavkin'
p3874
aS'razzed'
p3875
aS'l'
p3876
aS'gryder'
p3877
aS'p'
p3878
aS't'
p3879
aS'h'
p3880
asS'405'
p3881
(lp3882
S'395'
p3883
aS'415'
p3884
aS'408'
p3885
aS'406'
p3886
aS'510'
p3887
aS'407'
p3888
aS'295'
p3889
aS'525'
p3890
asS'planned'
p3891
(lp3892
S'plans'
p3893
aS'planning'
p3894
aS'plan'
p3895
aS'scheduled'
p3896
aS'launch'
p3897
aS'would'
p3898
aS'intended'
p3899
aS'proposed'
p3900
asS'marta'
p3901
(lp3902
S'542'
p3903
aS'olaru'
p3904
aS'mujaheed'
p3905
aS'abdiqasim'
p3906
aS'santa'
p3907
aS'dominguez'
p3908
aS'elena'
p3909
aS'olga'
p3910
asS'30th'
p3911
(lp3912
S'25th'
p3913
aS'35th'
p3914
aS'40th'
p3915
aS'31st'
p3916
aS'29th'
p3917
aS'28th'
p3918
aS'26th'
p3919
aS'32nd'
p3920
asS'had'
p3921
(lp3922
S'having'
p3923
aS'have'
p3924
aS'been'
p3925
aS'has'
p3926
aS'never'
p3927
aS'was'
p3928
aS'did'
p3929
aS'recently'
p3930
asS'tuesday'
p3931
(lp3932
S'wednesday'
p3933
aS'thursday'
p3934
aS'monday'
p3935
aS'friday'
p3936
aS'saturday'
p3937
aS'sunday'
p3938
aS'week'
p3939
aS'afternoon'
p3940
asS'2nd'
p3941
(lp3942
S'3rd'
p3943
aS'1st'
p3944
aS'4th'
p3945
aS'5th'
p3946
aS'6th'
p3947
aS'7th'
p3948
aS'8th'
p3949
aS'9th'
p3950
asS'ucd'
p3951
(lp3952
S'192nd'
p3953
aS'subspecies'
p3954
aS'var'
p3955
aS'trichromatic'
p3956
aS'mobo'
p3957
aS'ratione'
p3958
aS'youmans'
p3959
aS'testud'
p3960
asS'church'
p3961
(lp3962
S'churches'
p3963
aS'episcopal'
p3964
aS'catholic'
p3965
aS'cathedral'
p3966
aS'baptist'
p3967
aS'chapel'
p3968
aS'congregation'
p3969
aS'lutheran'
p3970
asS'cancel'
p3971
(lp3972
S'canceled'
p3973
aS'canceling'
p3974
aS'cancellation'
p3975
aS'cancelled'
p3976
aS'postpone'
p3977
aS'cancelling'
p3978
aS'reschedule'
p3979
aS'cancels'
p3980
asS'johana'
p3981
(lp3982
S'merest'
p3983
aS'pliskova'
p3984
aS'ahci'
p3985
aS'spoonbill'
p3986
aS'pollert'
p3987
aS'jerro'
p3988
aS'e70'
p3989
aS'1935-1936'
p3990
asS'considering'
p3991
(lp3992
S'consider'
p3993
aS'possibility'
p3994
aS'mulling'
p3995
aS'contemplating'
p3996
aS'proposing'
p3997
aS'discussing'
p3998
aS'putting'
p3999
aS'proposed'
p4000
asS'quit'
p4001
(lp4002
S'quitting'
p4003
aS'resigned'
p4004
aS'resign'
p4005
aS'quits'
p4006
aS'resigning'
p4007
aS'retire'
p4008
aS'decided'
p4009
aS'resignation'
p4010
asS'oliver'
p4011
(lp4012
S'cromwell'
p4013
aS'magne'
p4014
aS'platt'
p4015
aS'hulse'
p4016
aS'thomas'
p4017
aS'henry'
p4018
aS'holmes'
p4019
aS'kahn'
p4020
asS'2pm'
p4021
(lp4022
S'cp/m'
p4023
aS'carterville'
p4024
aS'saugus'
p4025
aS'demeo'
p4026
aS'antonovich'
p4027
aS'hamtramck'
p4028
aS'earthling'
p4029
aS'gilly'
p4030
asS'create'
p4031
(lp4032
S'creating'
p4033
aS'created'
p4034
aS'creates'
p4035
aS'creation'
p4036
aS'build'
p4037
aS'develop'
p4038
aS'bring'
p4039
aS'produce'
p4040
asS'three'
p4041
(lp4042
S'four'
p4043
aS'five'
p4044
aS'two'
p4045
aS'six'
p4046
aS'seven'
p4047
aS'eight'
p4048
aS'nine'
p4049
aS'one'
p4050
asS'been'
p4051
(lp4052
S'being'
p4053
aS'have'
p4054
aS'already'
p4055
aS'be'
p4056
aS'has'
p4057
aS'having'
p4058
aS'had'
p4059
aS'were'
p4060
asS'pa'
p4061
(lp4062
S'pa.'
p4063
aS'ar'
p4064
aS'pfg'
p4065
aS'rac'
p4066
aS'ga'
p4067
aS'intersects'
p4068
aS'pennsylvania'
p4069
aS'pf'
p4070
asS'ireland'
p4071
(lp4072
S'irish'
p4073
aS'dublin'
p4074
aS'scotland'
p4075
aS'britain'
p4076
aS'belfast'
p4077
aS'england'
p4078
aS'ulster'
p4079
aS'wales'
p4080
asS'entered'
p4081
(lp4082
S'entering'
p4083
aS'enter'
p4084
aS'exited'
p4085
aS'into'
p4086
aS'returned'
p4087
aS'entry'
p4088
aS'went'
p4089
aS'before'
p4090
asS'meeting'
p4091
(lp4092
S'meetings'
p4093
aS'conference'
p4094
aS'meet'
p4095
aS'summit'
p4096
aS'met'
p4097
aS'discuss'
p4098
aS'talks'
p4099
aS'ministers'
p4100
asS'pm'
p4101
(lp4102
S'p.m.'
p4103
aS'gmt'
p4104
aS'12:30'
p4105
aS'10:30'
p4106
aS'11:30'
p4107
aS'4:00'
p4108
aS'10:00'
p4109
aS'2:30'
p4110
asS'flight'
p4111
(lp4112
S'flights'
p4113
aS'plane'
p4114
aS'flying'
p4115
aS'pilots'
p4116
aS'airplane'
p4117
aS'pilot'
p4118
aS'airline'
p4119
aS'airlines'
p4120
asS'squash'
p4121
(lp4122
S'badminton'
p4123
aS'loony'
p4124
aS'zucchini'
p4125
aS'tennis'
p4126
aS'groff'
p4127
aS'netball'
p4128
aS'softball'
p4129
aS'volleyball'
p4130
asS'anthony'
p4131
(lp4132
S'stephen'
p4133
aS'james'
p4134
aS'j.'
p4135
aS'thomas'
p4136
aS'carmelo'
p4137
aS'michael'
p4138
aS'francis'
p4139
aS'christopher'
p4140
asS'imax'
p4141
(lp4142
S'3-d'
p4143
aS'theaters'
p4144
aS'screens'
p4145
aS'planetarium'
p4146
aS'cinemas'
p4147
aS'multiplex'
p4148
aS'nanyang'
p4149
aS'ranga'
p4150
asS'last'
p4151
(lp4152
S'month'
p4153
aS'week'
p4154
aS'year'
p4155
aS'ago'
p4156
aS'earlier'
p4157
aS'after'
p4158
aS'months'
p4159
aS'came'
p4160
asS'google'
p4161
(lp4162
S'yahoo'
p4163
aS'microsoft'
p4164
aS'facebook'
p4165
aS'aol'
p4166
aS'internet'
p4167
aS'web'
p4168
aS'netscape'
p4169
aS'online'
p4170
asS'availabilities'
p4171
(lp4172
S'92.59'
p4173
aS'70.29'
p4174
aS'finedon'
p4175
aS'catolico'
p4176
aS'barsamian'
p4177
aS'veller'
p4178
aS'vosburg'
p4179
aS'ghsa'
p4180
asS'those'
p4181
(lp4182
S'these'
p4183
aS'all'
p4184
aS'many'
p4185
aS'they'
p4186
aS'other'
p4187
aS'are'
p4188
aS'have'
p4189
aS'ones'
p4190
asS'13th'
p4191
(lp4192
S'15th'
p4193
aS'14th'
p4194
aS'12th'
p4195
aS'11th'
p4196
aS'16th'
p4197
aS'10th'
p4198
aS'17th'
p4199
aS'18th'
p4200
asS'save'
p4201
(lp4202
S'saved'
p4203
aS'saving'
p4204
aS'saves'
p4205
aS'help'
p4206
aS'effort'
p4207
aS'keep'
p4208
aS'chance'
p4209
aS'survive'
p4210
asS'air'
p4211
(lp4212
S'force'
p4213
aS'aircraft'
p4214
aS'jet'
p4215
aS'flight'
p4216
aS'planes'
p4217
aS'aviation'
p4218
aS'pilots'
p4219
aS'flying'
p4220
asS'will'
p4221
(lp4222
S'would'
p4223
aS'should'
p4224
aS'expected'
p4225
aS'could'
p4226
aS'must'
p4227
aS'take'
p4228
aS'can'
p4229
aS'next'
p4230
asS'receive'
p4231
(lp4232
S'receiving'
p4233
aS'received'
p4234
aS'receives'
p4235
aS'pay'
p4236
aS'recipients'
p4237
aS'given'
p4238
aS'eligible'
p4239
aS'provide'
p4240
asS'paul'
p4241
(lp4242
S'peter'
p4243
aS'pope'
p4244
aS'john'
p4245
aS'sidgmore'
p4246
aS'kevin'
p4247
aS'j.'
p4248
aS'gregory'
p4249
aS'st.'
p4250
asS'mordor'
p4251
(lp4252
S'tages'
p4253
aS'savonarola'
p4254
aS'499-3382'
p4255
aS'apoplexy'
p4256
aS'niassa'
p4257
aS'ethelbert'
p4258
aS'hemofarm'
p4259
aS'treme'
p4260
asS'fun'
p4261
(lp4262
S'stuff'
p4263
aS'enjoyable'
p4264
aS'really'
p4265
aS'entertaining'
p4266
aS'kids'
p4267
aS'funny'
p4268
aS'things'
p4269
aS'wonderful'
p4270
asS'voice'
p4271
(lp4272
S'voices'
p4273
aS'singing'
p4274
aS'vocal'
p4275
aS'sounds'
p4276
aS'tone'
p4277
aS'sound'
p4278
aS'culp'
p4279
aS'heard'
p4280
asS'changed'
p4281
(lp4282
S'changing'
p4283
aS'change'
p4284
aS'same'
p4285
aS'altered'
p4286
aS'shifted'
p4287
aS'changes'
p4288
aS'again'
p4289
aS'when'
p4290
asS'dublin'
p4291
(lp4292
S'belfast'
p4293
aS'ireland'
p4294
aS'irish'
p4295
aS'limerick'
p4296
aS'cork'
p4297
aS'galway'
p4298
aS'edinburgh'
p4299
aS'london'
p4300
asS'is'
p4301
(lp4302
S'now'
p4303
aS'it'
p4304
aS'this'
p4305
aS'which'
p4306
aS'comes'
p4307
aS'still'
p4308
aS'be'
p4309
aS'means'
p4310
asS'it'
p4311
(lp4312
S'this'
p4313
aS'but'
p4314
aS'so'
p4315
aS'that'
p4316
aS'what'
p4317
aS'just'
p4318
aS'because'
p4319
aS'which'
p4320
asS'lonely'
p4321
(lp4322
S'desolate'
p4323
aS'bored'
p4324
aS'restless'
p4325
aS'sad'
p4326
aS'wandering'
p4327
aS'unwitting'
p4328
aS'loner'
p4329
aS'miserable'
p4330
asS'calender'
p4331
(lp4332
S'mux'
p4333
aS'sidoarjo'
p4334
aS'thunderstorm'
p4335
aS'thunderstorms'
p4336
aS'tornadoes'
p4337
aS'tornado'
p4338
aS'sagres'
p4339
aS'tunics'
p4340
asS'in'
p4341
(lp4342
S'where'
p4343
aS'last'
p4344
aS'since'
p4345
aS'the'
p4346
aS'.'
p4347
aS'same'
p4348
aS'first'
p4349
aS','
p4350
asS'if'
p4351
(lp4352
S'not'
p4353
aS'does'
p4354
aS'should'
p4355
aS"n't"
p4356
aS'could'
p4357
aS'so'
p4358
aS'might'
p4359
aS'can'
p4360
asS'anymore'
p4361
(lp4362
S'nobody'
p4363
aS'anybody'
p4364
aS'else'
p4365
aS'anyway'
p4366
aS'anything'
p4367
aS"n't"
p4368
aS'know'
p4369
asS'pay'
p4370
(lp4371
S'paid'
p4372
aS'paying'
p4373
aS'payment'
p4374
aS'payments'
p4375
aS'fees'
p4376
aS'salaries'
p4377
aS'pays'
p4378
aS'salary'
p4379
asS'make'
p4380
(lp4381
S'making'
p4382
aS'made'
p4383
aS'makes'
p4384
aS"n't"
p4385
aS'take'
p4386
aS'come'
p4387
aS'would'
p4388
aS'give'
p4389
asS'airport'
p4390
(lp4391
S'airports'
p4392
aS'flights'
p4393
aS'heathrow'
p4394
aS'passengers'
p4395
aS'flight'
p4396
aS'plane'
p4397
aS'terminal'
p4398
aS'tarmac'
p4399
asS'same'
p4400
(lp4401
S'this'
p4402
aS'time'
p4403
aS'which'
p4404
aS'it'
p4405
aS'one'
p4406
aS'similar'
p4407
aS'only'
p4408
aS'that'
p4409
asS'check'
p4410
(lp4411
S'checks'
p4412
aS'checking'
p4413
aS'checked'
p4414
aS'your'
p4415
aS'sure'
p4416
aS'you'
p4417
aS'get'
p4418
aS'keep'
p4419
asS'8pm'
p4420
(lp4421
S'rassie'
p4422
aS'skoczow'
p4423
aS'bahauddin'
p4424
aS'harzburg'
p4425
aS'1997-2004'
p4426
aS'mbalax'
p4427
aS'daisaku'
p4428
aS'werneth'
p4429
asS'buddhism'
p4430
(lp4431
S'hinduism'
p4432
aS'hormozgan'
p4433
aS'tathiana'
p4434
aS'13-10'
p4435
aS'christianity'
p4436
aS'hushovd'
p4437
aS'buddhist'
p4438
aS'campese'
p4439
asS'9'
p4440
(lp4441
S'7'
p4442
aS'8'
p4443
aS'6'
p4444
aS'5'
p4445
aS'4'
p4446
aS'13'
p4447
aS'12'
p4448
aS'14'
p4449
asS'party'
p4450
(lp4451
S'parties'
p4452
aS'democratic'
p4453
aS'opposition'
p4454
aS'socialist'
p4455
aS'candidate'
p4456
aS'ruling'
p4457
aS'coalition'
p4458
aS'communist'
p4459
asS'events'
p4460
(lp4461
S'event'
p4462
aS'competitions'
p4463
aS'tournaments'
p4464
aS'world'
p4465
aS'olympics'
p4466
aS'various'
p4467
aS'venues'
p4468
aS'olympic'
p4469
asS'8am'
p4470
(lp4471
S'herlihy'
p4472
aS'sweetgrass'
p4473
aS'ossified'
p4474
aS'reisterstown'
p4475
aS'inventio'
p4476
aS'spijkenisse'
p4477
aS'34.68'
p4478
aS'smashmouth'
p4479
asS'week'
p4480
(lp4481
S'month'
p4482
aS'last'
p4483
aS'weeks'
p4484
aS'friday'
p4485
aS'thursday'
p4486
aS'monday'
p4487
aS'tuesday'
p4488
aS'wednesday'
p4489
asS'finish'
p4490
(lp4491
S'finishing'
p4492
aS'finished'
p4493
aS'finishes'
p4494
aS'final'
p4495
aS'ahead'
p4496
aS'start'
p4497
aS'race'
p4498
aS'straight'
p4499
asS'897'
p4500
(lp4501
S'interdisciplinary'
p4502
aS'.02'
p4503
aS'172.5'
p4504
aS'lechler'
p4505
aS'tamileelam'
p4506
aS'deindustrialization'
p4507
aS'nothings'
p4508
aS'collaborative'
p4509
asS'assignment'
p4510
(lp4511
S'assignments'
p4512
aS'assigned'
p4513
aS'stint'
p4514
aS'task'
p4515
aS'job'
p4516
aS'reassigned'
p4517
aS'completing'
p4518
aS'duty'
p4519
asS'drink'
p4520
(lp4521
S'drinks'
p4522
aS'drinking'
p4523
aS'drank'
p4524
aS'beer'
p4525
aS'beverage'
p4526
aS'alcohol'
p4527
aS'beverages'
p4528
aS'eat'
p4529
asS'friends'
p4530
(lp4531
S'friend'
p4532
aS'loved'
p4533
aS'parents'
p4534
aS'acquaintances'
p4535
aS'relatives'
p4536
aS'neighbors'
p4537
aS'colleagues'
p4538
aS'whom'
p4539
asS'yesterday'
p4540
(lp4541
S'today'
p4542
aS'afternoon'
p4543
aS'friday'
p4544
aS'monday'
p4545
aS'tuesday'
p4546
aS'thursday'
p4547
aS'morning'
p4548
aS'week'
p4549
asS'holidays'
p4550
(lp4551
S'holiday'
p4552
aS'weekends'
p4553
aS'vacations'
p4554
aS'christmas'
p4555
aS'thanksgiving'
p4556
aS'easter'
p4557
aS'sundays'
p4558
aS'vacation'
p4559
asS'running'
p4560
(lp4561
S'ran'
p4562
aS'run'
p4563
aS'line'
p4564
aS'going'
p4565
aS'out'
p4566
aS'back'
p4567
aS'runs'
p4568
aS'up'
p4569
asS'painful'
p4570
(lp4571
S'wrenching'
p4572
aS'excruciating'
p4573
aS'traumatic'
p4574
aS'pain'
p4575
aS'unpleasant'
p4576
aS'agonizing'
p4577
aS'endure'
p4578
aS'debilitating'
p4579
asS'fucked'
p4580
(lp4581
S'tyrannosaurids'
p4582
aS'boerse'
p4583
aS'pengfei'
p4584
aS'derivatives'
p4585
aS'euronext'
p4586
aS'rivaling'
p4587
aS'fact-finding'
p4588
aS'wences'
p4589
asS'task'
p4590
(lp4591
S'tasks'
p4592
aS'daunting'
p4593
aS'tasked'
p4594
aS'difficult'
p4595
aS'force'
p4596
aS'accomplish'
p4597
aS'undertaking'
p4598
aS'priority'
p4599
asS'off'
p4600
(lp4601
S'out'
p4602
aS'away'
p4603
aS'back'
p4604
aS'just'
p4605
aS'put'
p4606
aS'down'
p4607
aS'up'
p4608
aS'when'
p4609
asS'i'
p4610
(lp4611
S"'d"
p4612
aS'you'
p4613
aS"'ve"
p4614
aS"'m"
p4615
aS'really'
p4616
aS'we'
p4617
aS'know'
p4618
aS'me'
p4619
asS'seth'
p4620
(lp4621
S'daunte'
p4622
aS'macfarlane'
p4623
aS'sandner'
p4624
aS'mohave'
p4625
aS'adam'
p4626
aS'meyers'
p4627
aS'joshua'
p4628
aS'aaron'
p4629
asS'recital'
p4630
(lp4631
S'recitals'
p4632
aS'concert'
p4633
aS'concerts'
p4634
aS'soloist'
p4635
aS'piano'
p4636
aS'carnegie'
p4637
aS'hangman'
p4638
aS'choral'
p4639
asS'mother'
p4640
(lp4641
S'grandmother'
p4642
aS'daughter'
p4643
aS'wife'
p4644
aS'sister'
p4645
aS'father'
p4646
aS'husband'
p4647
aS'her'
p4648
aS'aunt'
p4649
asS'entry'
p4650
(lp4651
S'enter'
p4652
aS'entering'
p4653
aS'entries'
p4654
aS'entrance'
p4655
aS'entered'
p4656
aS'visa'
p4657
aS'visas'
p4658
aS'admission'
p4659
asS'jean'
p4660
(lp4661
S'pierre'
p4662
aS'claude'
p4663
aS'francois'
p4664
aS'baptiste'
p4665
aS'marie'
p4666
aS'jacques'
p4667
aS'michel'
p4668
aS'philippe'
p4669
asS'summer'
p4670
(lp4671
S'winter'
p4672
aS'spring'
p4673
aS'autumn'
p4674
aS'year'
p4675
aS'olympics'
p4676
aS'weekend'
p4677
aS'season'
p4678
aS'beginning'
p4679
asS'just'
p4680
(lp4681
S'going'
p4682
aS'it'
p4683
aS'but'
p4684
aS'so'
p4685
aS'what'
p4686
aS'you'
p4687
aS'really'
p4688
aS"n't"
p4689
asS'liliana'
p4690
(lp4691
S'ofsted'
p4692
aS'doohan'
p4693
aS'86-year'
p4694
aS'indescribable'
p4695
aS'h20'
p4696
aS'www.netarrant.net'
p4697
aS'akter'
p4698
aS'tomasz'
p4699
asS'yes'
p4700
(lp4701
S'?'
p4702
aS'yeah'
p4703
aS'maybe'
p4704
aS'replied'
p4705
aS'think'
p4706
aS'know'
p4707
aS'!'
p4708
aS'i'
p4709
asS'weekly'
p4710
(lp4711
S'monthly'
p4712
aS'daily'
p4713
aS'magazine'
p4714
aS'newspaper'
p4715
aS'publication'
p4716
aS'zorn'
p4717
aS'news'
p4718
aS'regular'
p4719
asS'death'
p4720
(lp4721
S'died'
p4722
aS'deaths'
p4723
aS'murder'
p4724
aS'dead'
p4725
aS'killed'
p4726
aS'execution'
p4727
aS'victim'
p4728
aS'killing'
p4729
asS'cherry'
p4730
(lp4731
S'plum'
p4732
aS'blossom'
p4733
aS'peach'
p4734
aS'blossoms'
p4735
aS'orchard'
p4736
aS'pear'
p4737
aS'raspberry'
p4738
aS'cherries'
p4739
asS'cemetery'
p4740
(lp4741
S'interred'
p4742
aS'buried'
p4743
aS'cemeteries'
p4744
aS'burial'
p4745
aS'churchyard'
p4746
aS'mausoleum'
p4747
aS'graves'
p4748
aS'467'
p4749
asS'patricia'
p4750
(lp4751
S'cornwell'
p4752
aS'ann'
p4753
aS'kathleen'
p4754
aS'judith'
p4755
aS'jennifer'
p4756
aS'mclane'
p4757
aS'elizabeth'
p4758
aS'kathy'
p4759
asS'add'
p4760
(lp4761
S'combine'
p4762
aS'stir'
p4763
aS'adding'
p4764
aS'adds'
p4765
aS'extra'
p4766
aS'additional'
p4767
aS'mixture'
p4768
aS'mix'
p4769
asS'location'
p4770
(lp4771
S'locations'
p4772
aS'proximity'
p4773
aS'site'
p4774
aS'exact'
p4775
aS'located'
p4776
aS'area'
p4777
aS'vicinity'
p4778
aS'destination'
p4779
asS'has'
p4780
(lp4781
S'have'
p4782
aS'recently'
p4783
aS'been'
p4784
aS'already'
p4785
aS'also'
p4786
aS'since'
p4787
aS'had'
p4788
aS'having'
p4789
asS'scheduled'
p4790
(lp4791
S'slated'
p4792
aS'postponed'
p4793
aS'planned'
p4794
aS'next'
p4795
aS'nov.'
p4796
aS'oct.'
p4797
aS'expected'
p4798
aS'upcoming'
p4799
asS'sonic'
p4800
(lp4801
S'hedgehog'
p4802
aS'sega'
p4803
aS'nintendo'
p4804
aS'playstation'
p4805
aS'textures'
p4806
aS'futuristic'
p4807
aS'arcade'
p4808
aS'gameplay'
p4809
asS'marco'
p4810
(lp4811
S'simone'
p4812
aS'andrea'
p4813
aS'paolo'
p4814
aS'fabio'
p4815
aS'rossi'
p4816
aS'francesco'
p4817
aS'di'
p4818
aS'alessandro'
p4819
asS'march'
p4820
(lp4821
S'april'
p4822
aS'february'
p4823
aS'june'
p4824
aS'october'
p4825
aS'december'
p4826
aS'july'
p4827
aS'november'
p4828
aS'september'
p4829
asS'possible'
p4830
(lp4831
S'possibility'
p4832
aS'any'
p4833
aS'potential'
p4834
aS'might'
p4835
aS'could'
p4836
aS'likely'
p4837
aS'whether'
p4838
aS'possibly'
p4839
asS'gonna'
p4840
(lp4841
S'gotta'
p4842
aS"'cause"
p4843
aS'wanna'
p4844
aS"'em"
p4845
aS"'ll"
p4846
aS'hey'
p4847
asS'testa'
p4848
(lp4849
S'hgp'
p4850
aS'uaap'
p4851
aS'phew'
p4852
aS'ito'
p4853
aS'mboweni'
p4854
aS'lifesavers'
p4855
aS'diaphragms'
p4856
aS'ruston'
p4857
asS'game'
p4858
(lp4859
S'games'
p4860
aS'play'
p4861
aS'players'
p4862
aS'player'
p4863
aS'match'
p4864
aS'playing'
p4865
aS'scoring'
p4866
aS'played'
p4867
asS'capo'
p4868
(lp4869
S'delorme'
p4870
aS'evicting'
p4871
aS'overtake'
p4872
aS'setiawan'
p4873
aS'overtaking'
p4874
aS'coxeter-dynkin'
p4875
aS'emulate'
p4876
asS'mom'
p4877
(lp4878
S'dad'
p4879
aS'mother'
p4880
aS'grandmother'
p4881
aS'kids'
p4882
aS'moms'
p4883
aS'aunt'
p4884
aS'grandma'
p4885
aS'my'
p4886
asS'like'
p4887
(lp4888
S'such'
p4889
aS'even'
p4890
aS'you'
p4891
aS'?'
p4892
aS"n't"
p4893
aS'well'
p4894
aS'other'
p4895
aS'look'
p4896
asS'patrick'
p4897
(lp4898
S'murphy'
p4899
aS'leahy'
p4900
aS'pat'
p4901
aS'martin'
p4902
aS'sean'
p4903
aS'michael'
p4904
aS'j.'
p4905
aS'thomas'
p4906
asS'garage'
p4907
(lp4908
S'basement'
p4909
aS'garages'
p4910
aS'parking'
p4911
aS'car'
p4912
aS'rented'
p4913
aS'bedroom'
p4914
aS'door'
p4915
aS'shop'
p4916
asS't'
p4917
(lp4918
S'shirts'
p4919
aS'shirt'
p4920
aS'h'
p4921
aS'l'
p4922
aS'w'
p4923
aS's'
p4924
aS'verizon'
p4925
aS'jeans'
p4926
asS'night'
p4927
(lp4928
S'evening'
p4929
aS'saturday'
p4930
aS'sunday'
p4931
aS'afternoon'
p4932
aS'morning'
p4933
aS'nights'
p4934
aS'weekend'
p4935
aS'friday'
p4936
asS'hallmark'
p4937
(lp4938
S'hallmarks'
p4939
aS'greeting'
p4940
aS'signature'
p4941
aS'disney'
p4942
aS'rancic'
p4943
aS'logo'
p4944
aS'cw'
p4945
aS'brand'
p4946
asS'because'
p4947
(lp4948
S'but'
p4949
aS'so'
p4950
aS'though'
p4951
aS'not'
p4952
aS'even'
p4953
aS'if'
p4954
aS"n't"
p4955
aS'fact'
p4956
asS'fucking'
p4957
(lp4958
S'mateo'
p4959
aS'tredegar'
p4960
aS'dotcom'
p4961
aS'objector'
p4962
aS'camino'
p4963
aS'obispo'
p4964
aS'collymore'
p4965
aS'expended'
p4966
asS'back'
p4967
(lp4968
S'out'
p4969
aS'away'
p4970
aS'then'
p4971
aS'go'
p4972
aS'again'
p4973
aS'coming'
p4974
aS'come'
p4975
aS'going'
p4976
asS'escape'
p4977
(lp4978
S'escaping'
p4979
aS'escaped'
p4980
aS'escapes'
p4981
aS'flee'
p4982
aS'fleeing'
p4983
aS'fled'
p4984
aS'attempt'
p4985
aS'hiding'
p4986
asS'dear'
p4987
(lp4988
S'thank'
p4989
aS'xxi'
p4990
aS'sorry'
p4991
aS'dad'
p4992
aS'hey'
p4993
aS'my'
p4994
aS'beloved'
p4995
aS'yours'
p4996
asS'for'
p4997
(lp4998
S'time'
p4999
aS'.'
p5000
aS'while'
p5001
aS'as'
p5002
aS'but'
p5003
aS'years'
p5004
aS'well'
p5005
aS'only'
p5006
asS'confirm'
p5007
(lp5008
S'confirmed'
p5009
aS'confirming'
p5010
aS'indicated'
p5011
aS'confirms'
p5012
aS'reports'
p5013
aS'whether'
p5014
aS'confirmation'
p5015
aS'unclear'
p5016
asS'noon'
p5017
(lp5018
S'a.m.'
p5019
aS'midnight'
p5020
aS'p.m.'
p5021
aS'midday'
p5022
aS'morning'
p5023
aS'gmt'
p5024
aS'11:30'
p5025
aS'afternoon'
p5026
asS'shall'
p5027
(lp5028
S'must'
p5029
aS'cannot'
p5030
aS'henceforth'
p5031
aS'should'
p5032
aS'therefore'
p5033
aS'wish'
p5034
aS'obliged'
p5035
asS'14th'
p5036
(lp5037
S'13th'
p5038
aS'15th'
p5039
aS'16th'
p5040
aS'12th'
p5041
aS'11th'
p5042
aS'17th'
p5043
aS'10th'
p5044
aS'18th'
p5045
asS'pel'
p5046
(lp5047
S'optimizing'
p5048
aS'prunus'
p5049
aS'27,500'
p5050
aS'compiles'
p5051
aS'3-series'
p5052
aS'mehrtens'
p5053
aS'mocking'
p5054
aS'lambasted'
p5055
asS'everything'
p5056
(lp5057
S'things'
p5058
aS'everyone'
p5059
aS'else'
p5060
aS'really'
p5061
aS'everybody'
p5062
aS'anything'
p5063
aS'sure'
p5064
aS'know'
p5065
asS'does'
p5066
(lp5067
S"n't"
p5068
aS'if'
p5069
aS'do'
p5070
aS'not'
p5071
aS'wo'
p5072
aS'anything'
p5073
aS'nothing'
p5074
aS'what'
p5075
asS'be'
p5076
(lp5077
S'being'
p5078
aS'not'
p5079
aS'been'
p5080
aS'should'
p5081
aS'if'
p5082
aS'so'
p5083
aS'can'
p5084
aS'could'
p5085
asS'run'
p5086
(lp5087
S'runs'
p5088
aS'running'
p5089
aS'ran'
p5090
aS'go'
p5091
aS'allowed'
p5092
aS'going'
p5093
aS'went'
p5094
aS'out'
p5095
asS'schedule'
p5096
(lp5097
S'schedules'
p5098
aS'scheduled'
p5099
aS'scheduling'
p5100
aS'delayed'
p5101
aS'canceled'
p5102
aS'hectic'
p5103
aS'weekend'
p5104
aS'beginning'
p5105
asS'marketing'
p5106
(lp5107
S'advertising'
p5108
aS'merchandising'
p5109
aS'product'
p5110
aS'promotional'
p5111
aS'business'
p5112
aS'marketers'
p5113
aS'strategy'
p5114
aS'brand'
p5115
asS'how'
p5116
(lp5117
S'what'
p5118
aS'why'
p5119
aS'know'
p5120
aS'so'
p5121
aS'understand'
p5122
aS'really'
p5123
aS'way'
p5124
aS'things'
p5125
asS'by'
p5126
(lp5127
S'being'
p5128
aS'been'
p5129
aS'be'
p5130
aS'was'
p5131
aS'followed'
p5132
aS'this'
p5133
aS'when'
p5134
aS'led'
p5135
asS'on'
p5136
(lp5137
S'wednesday'
p5138
aS'tuesday'
p5139
aS'monday'
p5140
aS'friday'
p5141
aS'next'
p5142
aS'week'
p5143
aS'thursday'
p5144
aS'upon'
p5145
asS'about'
p5146
(lp5147
S'some'
p5148
aS'around'
p5149
aS'than'
p5150
aS'what'
p5151
aS'just'
p5152
aS'more'
p5153
aS'much'
p5154
aS'how'
p5155
asS'would'
p5156
(lp5157
S'could'
p5158
aS'might'
p5159
aS'not'
p5160
aS'will'
p5161
aS'should'
p5162
aS'did'
p5163
aS'if'
p5164
aS"n't"
p5165
asS'extension'
p5166
(lp5167
S'extensions'
p5168
aS'extend'
p5169
aS'extended'
p5170
aS'extending'
p5171
aS'extends'
p5172
aS'proposed'
p5173
aS'expansion'
p5174
aS'indefinite'
p5175
asS'oh'
p5176
(lp5177
S'yeah'
p5178
aS'!'
p5179
aS'powar'
p5180
aS'gosh'
p5181
aS'onishchenko'
p5182
aS'ok'
p5183
aS'yes'
p5184
aS'uh'
p5185
asS'of'
p5186
(lp5187
S'the'
p5188
aS'part'
p5189
aS'some'
p5190
aS'same'
p5191
aS'its'
p5192
aS'one'
p5193
aS'all'
p5194
aS'this'
p5195
asS'months'
p5196
(lp5197
S'weeks'
p5198
aS'month'
p5199
aS'days'
p5200
aS'years'
p5201
aS'year'
p5202
aS'last'
p5203
aS'ago'
p5204
aS'week'
p5205
asS'discussed'
p5206
(lp5207
S'discuss'
p5208
aS'discussing'
p5209
aS'discussions'
p5210
aS'talked'
p5211
aS'meeting'
p5212
aS'talks'
p5213
aS'briefed'
p5214
aS'discussion'
p5215
asS'dinner'
p5216
(lp5217
S'dinners'
p5218
aS'breakfast'
p5219
aS'lunch'
p5220
aS'luncheon'
p5221
aS'guests'
p5222
aS'banquet'
p5223
aS'meal'
p5224
aS'brunch'
p5225
asS'afternoon'
p5226
(lp5227
S'morning'
p5228
aS'evening'
p5229
aS'friday'
p5230
aS'monday'
p5231
aS'thursday'
p5232
aS'tuesday'
p5233
aS'wednesday'
p5234
aS'saturday'
p5235
asS'efforts'
p5236
(lp5237
S'effort'
p5238
aS'help'
p5239
aS'push'
p5240
aS'initiatives'
p5241
aS'progress'
p5242
aS'concerted'
p5243
aS'continuing'
p5244
aS'helping'
p5245
asS'or'
p5246
(lp5247
S'either'
p5248
aS'rather'
p5249
aS'can'
p5250
aS'any'
p5251
aS'those'
p5252
aS'not'
p5253
aS'without'
p5254
aS'instead'
p5255
asS'automatically'
p5256
(lp5257
S'manually'
p5258
aS'electronically'
p5259
aS'automatic'
p5260
aS'allows'
p5261
aS'user'
p5262
aS'unless'
p5263
aS'cannot'
p5264
aS'either'
p5265
asS'clubhouse'
p5266
(lp5267
S'locker'
p5268
aS'dugout'
p5269
aS'ballpark'
p5270
aS'fenway'
p5271
aS'yankees'
p5272
aS'room'
p5273
aS'mets'
p5274
aS'sox'
p5275
asS'lands'
p5276
(lp5277
S'land'
p5278
aS'territory'
p5279
aS'farmland'
p5280
aS'territories'
p5281
aS'occupied'
p5282
aS'estates'
p5283
aS'acres'
p5284
aS'grazing'
p5285
asS'into'
p5286
(lp5287
S'out'
p5288
aS'then'
p5289
aS'through'
p5290
aS'back'
p5291
aS'turn'
p5292
aS'turned'
p5293
aS'onto'
p5294
aS'way'
p5295
asS'weather'
p5296
(lp5297
S'hammoud'
p5298
aS'rain'
p5299
aS'temperatures'
p5300
aS'rainy'
p5301
aS'conditions'
p5302
aS'storms'
p5303
aS'winter'
p5304
aS'winds'
p5305
asS'donnybrook'
p5306
(lp5307
S'gentles'
p5308
aS'v-league'
p5309
aS'shoeboxes'
p5310
aS'borking'
p5311
aS'quisling'
p5312
aS'parides'
p5313
aS'guidlines'
p5314
asS'her'
p5315
(lp5316
S'she'
p5317
aS'mother'
p5318
aS'his'
p5319
aS'my'
p5320
aS'wife'
p5321
aS'daughter'
p5322
aS'herself'
p5323
aS'husband'
p5324
asS'transfer'
p5325
(lp5326
S'transfers'
p5327
aS'transferring'
p5328
aS'transferred'
p5329
aS'allow'
p5330
aS'return'
p5331
aS'allows'
p5332
aS'signing'
p5333
aS'allowing'
p5334
asS'museum'
p5335
(lp5336
S'museums'
p5337
aS'art'
p5338
aS'exhibit'
p5339
aS'gallery'
p5340
aS'exhibition'
p5341
aS'exhibits'
p5342
aS'curator'
p5343
aS'library'
p5344
asS'there'
p5345
(lp5346
S'no'
p5347
aS'but'
p5348
aS'all'
p5349
aS'still'
p5350
aS'some'
p5351
aS'few'
p5352
aS'.'
p5353
aS'what'
p5354
asS'hey'
p5355
(lp5356
S'yeah'
p5357
aS'!'
p5358
aS'gonna'
p5359
aS'gotta'
p5360
aS'`'
p5361
aS'?'
p5362
aS'me'
p5363
aS'hello'
p5364
asS'long'
p5365
(lp5366
S'short'
p5367
aS'longer'
p5368
aS'years'
p5369
aS'so'
p5370
aS'but'
p5371
aS'because'
p5372
aS'once'
p5373
aS'time'
p5374
asS'start'
p5375
(lp5376
S'starting'
p5377
aS'begin'
p5378
aS'started'
p5379
aS'starts'
p5380
aS'coming'
p5381
aS'beginning'
p5382
aS'going'
p5383
aS'began'
p5384
asS'accordingly'
p5385
(lp5386
S'adjust'
p5387
aS'appropriately'
p5388
aS'therefore'
p5389
aS'consequently'
p5390
aS'differently'
p5391
aS'accordance'
p5392
aS'respond'
p5393
aS'depending'
p5394
asS'much'
p5395
(lp5396
S'even'
p5397
aS'than'
p5398
aS'less'
p5399
aS'more'
p5400
aS'lot'
p5401
aS'though'
p5402
aS'but'
p5403
aS'because'
p5404
asS'lot'
p5405
(lp5406
S'really'
p5407
aS'much'
p5408
aS'things'
p5409
aS'maybe'
p5410
aS'lots'
p5411
aS'think'
p5412
aS'know'
p5413
aS"'ve"
p5414
asS'wax'
p5415
(lp5416
S'fredric'
p5417
aS'isamu'
p5418
aS'stadion'
p5419
aS'reynaud'
p5420
aS'coating'
p5421
aS'plaster'
p5422
aS'resin'
p5423
asS'valencia'
p5424
(lp5425
S'zaragoza'
p5426
aS'sevilla'
p5427
aS'mallorca'
p5428
aS'barcelona'
p5429
aS'villarreal'
p5430
aS'malaga'
p5431
aS'madrid'
p5432
aS'valladolid'
p5433
asS'was'
p5434
(lp5435
S'being'
p5436
aS'been'
p5437
aS'had'
p5438
aS'later'
p5439
aS'were'
p5440
aS'initially'
p5441
aS'be'
p5442
aS'he'
p5443
asS'buy'
p5444
(lp5445
S'sell'
p5446
aS'purchase'
p5447
aS'buying'
p5448
aS'bought'
p5449
aS'acquire'
p5450
aS'buys'
p5451
aS'sold'
p5452
aS'sale'
p5453
asS'delayed'
p5454
(lp5455
S'postponed'
p5456
aS'delays'
p5457
aS'delay'
p5458
aS'delaying'
p5459
aS'postpone'
p5460
aS'canceled'
p5461
aS'cancelled'
p5462
aS'due'
p5463
asS'episode'
p5464
(lp5465
S'episodes'
p5466
aS'aired'
p5467
aS'finale'
p5468
aS'storyline'
p5469
aS'simpsons'
p5470
aS'sitcom'
p5471
aS'show'
p5472
aS'character'
p5473
asS'with'
p5474
(lp5475
S'both'
p5476
aS'and'
p5477
aS'while'
p5478
aS'well'
p5479
aS'all'
p5480
aS'same'
p5481
aS'them'
p5482
aS'but'
p5483
asS'eat'
p5484
(lp5485
S'eating'
p5486
aS'ate'
p5487
aS'eaten'
p5488
aS'meal'
p5489
aS'consume'
p5490
aS'drink'
p5491
aS'eats'
p5492
aS'meals'
p5493
asS'he'
p5494
(lp5495
S'him'
p5496
aS'his'
p5497
aS'she'
p5498
aS'but'
p5499
aS'then'
p5500
aS'never'
p5501
aS'when'
p5502
aS'himself'
p5503
asS'pull'
p5504
(lp5505
S'pulling'
p5506
aS'pulled'
p5507
aS'pulls'
p5508
aS'push'
p5509
aS'put'
p5510
aS'out'
p5511
aS'back'
p5512
aS'withdraw'
p5513
asS'october'
p5514
(lp5515
S'september'
p5516
aS'february'
p5517
aS'november'
p5518
aS'december'
p5519
aS'january'
p5520
aS'april'
p5521
aS'august'
p5522
aS'june'
p5523
asS'rage'
p5524
(lp5525
S'anger'
p5526
aS'fury'
p5527
aS'jealousy'
p5528
aS'despair'
p5529
aS'hatred'
p5530
aS'grief'
p5531
aS'frustration'
p5532
aS'emotions'
p5533
asS'up'
p5534
(lp5535
S'down'
p5536
aS'out'
p5537
aS'put'
p5538
aS'just'
p5539
aS'get'
p5540
aS'back'
p5541
aS'so'
p5542
aS'while'
p5543
asS'ruined'
p5544
(lp5545
S'ruin'
p5546
aS'ruins'
p5547
aS'wrecked'
p5548
aS'destroyed'
p5549
aS'shattered'
p5550
aS'damaged'
p5551
aS'devastated'
p5552
aS'rebuild'
p5553
asS'walter'
p5554
(lp5555
S'samuel'
p5556
aS'frank'
p5557
aS'h.'
p5558
aS'herbert'
p5559
aS'harold'
p5560
aS'f.'
p5561
aS'l.'
p5562
aS'j.'
p5563
asS'minutes'
p5564
(lp5565
S'minute'
p5566
aS'seconds'
p5567
aS'hour'
p5568
aS'hours'
p5569
aS'half'
p5570
aS'10'
p5571
aS'just'
p5572
aS'time'
p5573
asS'called'
p5574
(lp5575
S'known'
p5576
aS'referred'
p5577
aS'calling'
p5578
aS'also'
p5579
aS'call'
p5580
aS'which'
p5581
aS'described'
p5582
aS'dubbed'
p5583
asS'delete'
p5584
(lp5585
S'commoners'
p5586
aS'deleted'
p5587
aS'edit'
p5588
aS'1682'
p5589
aS'tillakaratne'
p5590
aS'insert'
p5591
aS'modify'
p5592
aS'otters'
p5593
asS'cinema'
p5594
(lp5595
S'films'
p5596
aS'film'
p5597
aS'cinemas'
p5598
aS'theater'
p5599
aS'movie'
p5600
aS'movies'
p5601
aS'theatre'
p5602
aS'theaters'
p5603
asS'm'
p5604
(lp5605
S'metres'
p5606
aS'meters'
p5607
aS'ft'
p5608
aS'metre'
p5609
aS'meter'
p5610
aS'height'
p5611
aS'elevation'
p5612
aS'200'
p5613
asS'forgot'
p5614
(lp5615
S'forgets'
p5616
aS'forget'
p5617
aS'remember'
p5618
aS'tell'
p5619
aS'forgotten'
p5620
aS"'d"
p5621
aS'somebody'
p5622
aS'anyway'
p5623
asS'am'
p5624
(lp5625
S"'m"
p5626
aS'glad'
p5627
aS'i'
p5628
aS'sorry'
p5629
aS'happy'
p5630
aS"'re"
p5631
aS'myself'
p5632
aS'proud'
p5633
asS'doesn'
p5634
(lp5635
S'hol'
p5636
aS'cranky'
p5637
aS'whining'
p5638
aS'mitsukoshi'
p5639
aS'obnoxious'
p5640
aS'karine'
p5641
aS'morita'
p5642
aS'palladian'
p5643
asS'an'
p5644
(lp5645
S'another'
p5646
aS'this'
p5647
aS'that'
p5648
aS'which'
p5649
aS'it'
p5650
aS'for'
p5651
aS'same'
p5652
aS'is'
p5653
asS'as'
p5654
(lp5655
S'also'
p5656
aS'well'
p5657
aS'known'
p5658
aS'such'
p5659
aS'most'
p5660
aS'even'
p5661
aS'but'
p5662
aS'once'
p5663
asS'at'
p5664
(lp5665
S'where'
p5666
aS'.'
p5667
aS'time'
p5668
aS'near'
p5669
aS'here'
p5670
aS'while'
p5671
aS'before'
p5672
aS'there'
p5673
asS'politics'
p5674
(lp5675
S'political'
p5676
aS'politicians'
p5677
aS'religion'
p5678
aS'culture'
p5679
aS'ideology'
p5680
aS'partisan'
p5681
aS'liberal'
p5682
aS'debate'
p5683
asS'cafe'
p5684
(lp5685
S'restaurant'
p5686
aS'cafes'
p5687
aS'bistro'
p5688
aS'deri'
p5689
aS'bakery'
p5690
aS'restaurants'
p5691
aS'lounge'
p5692
asS'trip'
p5693
(lp5694
S'visit'
p5695
aS'trips'
p5696
aS'journey'
p5697
aS'travel'
p5698
aS'weekend'
p5699
aS'vacation'
p5700
aS'itinerary'
p5701
aS'traveled'
p5702
asS'saber'
p5703
(lp5704
S'rattling'
p5705
aS'sabre'
p5706
aS'muffed'
p5707
aS'marleau'
p5708
aS'810'
p5709
aS'oss'
p5710
aS'jean-luc'
p5711
aS'oscillators'
p5712
asS'no'
p5713
(lp5714
S'any'
p5715
aS'there'
p5716
aS'not'
p5717
aS'without'
p5718
aS'only'
p5719
aS'nothing'
p5720
aS'but'
p5721
aS'even'
p5722
asS'when'
p5723
(lp5724
S'then'
p5725
aS'before'
p5726
aS'again'
p5727
aS'after'
p5728
aS'time'
p5729
aS'but'
p5730
aS'later'
p5731
aS'once'
p5732
asS'saturday'
p5733
(lp5734
S'sunday'
p5735
aS'friday'
p5736
aS'wednesday'
p5737
aS'monday'
p5738
aS'thursday'
p5739
aS'tuesday'
p5740
aS'weekend'
p5741
aS'night'
p5742
asS'book'
p5743
(lp5744
S'books'
p5745
aS'author'
p5746
aS'published'
p5747
aS'novel'
p5748
aS'memoir'
p5749
aS'wrote'
p5750
aS'biography'
p5751
aS'autobiography'
p5752
asS'5'
p5753
(lp5754
S'6'
p5755
aS'4'
p5756
aS'7'
p5757
aS'3'
p5758
aS'8'
p5759
aS'9'
p5760
aS'2'
p5761
aS'10'
p5762
asS'details'
p5763
(lp5764
S'detail'
p5765
aS'detailed'
p5766
aS'specifics'
p5767
aS'reveal'
p5768
aS'comment'
p5769
aS'disclose'
p5770
aS'disclosed'
p5771
aS'detailing'
p5772
asS'sick'
p5773
(lp5774
S'ill'
p5775
aS'tired'
p5776
aS'dying'
p5777
aS'patients'
p5778
aS'elderly'
p5779
aS'infected'
p5780
aS'caring'
p5781
aS'care'
p5782
asS'you'
p5783
(lp5784
S"'ll"
p5785
aS"n't"
p5786
aS'?'
p5787
aS'know'
p5788
aS'i'
p5789
aS'do'
p5790
aS'want'
p5791
aS'me'
p5792
asS'really'
p5793
(lp5794
S'think'
p5795
aS'thing'
p5796
aS'know'
p5797
aS'something'
p5798
aS'things'
p5799
aS'definitely'
p5800
aS'obviously'
p5801
aS'certainly'
p5802
asS'michael'
p5803
(lp5804
S'peter'
p5805
aS'moore'
p5806
aS'kevin'
p5807
aS'james'
p5808
aS'miller'
p5809
aS'j.'
p5810
aS'patrick'
p5811
aS'steven'
p5812
asS'monday'
p5813
(lp5814
S'tuesday'
p5815
aS'thursday'
p5816
aS'wednesday'
p5817
aS'friday'
p5818
aS'saturday'
p5819
aS'sunday'
p5820
aS'week'
p5821
aS'afternoon'
p5822
asS'students'
p5823
(lp5824
S'student'
p5825
aS'teachers'
p5826
aS'school'
p5827
aS'graduates'
p5828
aS'pupils'
p5829
aS'schools'
p5830
aS'graduate'
p5831
aS'undergraduates'
p5832
asS'teeth'
p5833
(lp5834
S'tooth'
p5835
aS'jaw'
p5836
aS'bones'
p5837
aS'jaws'
p5838
aS'perturbation'
p5839
aS'claws'
p5840
aS'nose'
p5841
aS'skull'
p5842
asS'june'
p5843
(lp5844
S'april'
p5845
aS'july'
p5846
aS'october'
p5847
aS'february'
p5848
aS'september'
p5849
aS'november'
p5850
aS'december'
p5851
aS'january'
p5852
asS'chris'
p5853
(lp5854
S'tim'
p5855
aS'rob'
p5856
aS'smith'
p5857
aS'doug'
p5858
aS'mike'
p5859
aS'dave'
p5860
aS'steve'
p5861
aS'jason'
p5862
asS'weekend'
p5863
(lp5864
S'sunday'
p5865
aS'saturday'
p5866
aS'week'
p5867
aS'friday'
p5868
aS'day'
p5869
aS'night'
p5870
aS'month'
p5871
aS'weeks'
p5872
asS'13'
p5873
(lp5874
S'14'
p5875
aS'17'
p5876
aS'16'
p5877
aS'12'
p5878
aS'19'
p5879
aS'21'
p5880
aS'15'
p5881
aS'22'
p5882
asS'died'
p5883
(lp5884
S'death'
p5885
aS'killed'
p5886
aS'dead'
p5887
aS'survived'
p5888
aS'hospitalized'
p5889
aS'son'
p5890
aS'wounded'
p5891
aS'father'
p5892
asS'land'
p5893
(lp5894
S'lands'
p5895
aS'property'
p5896
aS'farmland'
p5897
aS'acres'
p5898
aS'territory'
p5899
aS'area'
p5900
aS'arable'
p5901
aS'ownership'
p5902
asS'wife'
p5903
(lp5904
S'husband'
p5905
aS'daughter'
p5906
aS'mother'
p5907
aS'married'
p5908
aS'daughters'
p5909
aS'sister'
p5910
aS'girlfriend'
p5911
aS'father'
p5912
asS'youtube'
p5913
(lp5914
S'facebook'
p5915
aS'myspace'
p5916
aS'twitter'
p5917
aS'uploaded'
p5918
aS'videos'
p5919
aS'clips'
p5920
aS'blog'
p5921
aS'31,250'
p5922
asS'together'
p5923
(lp5924
S'them'
p5925
aS'with'
p5926
aS'working'
p5927
aS'they'
p5928
aS'up'
p5929
aS'all'
p5930
aS'work'
p5931
aS'and'
p5932
asS'moment'
p5933
(lp5934
S'moments'
p5935
aS'thing'
p5936
aS'something'
p5937
aS'what'
p5938
aS'really'
p5939
aS'kind'
p5940
aS'remember'
p5941
aS'truly'
p5942
asS'time'
p5943
(lp5944
S'when'
p5945
aS'before'
p5946
aS'but'
p5947
aS'just'
p5948
aS'.'
p5949
aS'same'
p5950
aS'years'
p5951
aS'so'
p5952
asS'8th'
p5953
(lp5954
S'6th'
p5955
aS'7th'
p5956
aS'5th'
p5957
aS'9th'
p5958
aS'4th'
p5959
aS'11th'
p5960
aS'3rd'
p5961
aS'12th'
p5962
as.