(dp0
S'neige'
p1
(lp2
S'Neige'
p3
aS'T\xeate'
p4
aS'heureux'
p5
aS'vacances'
p6
asS'all'
p7
(lp8
S'these'
p9
aS'those'
p10
aS'everyone'
p11
aS'All'
p12
aS'everything'
p13
aS'various'
p14
aS'everybody'
p15
aS'kinds'
p16
aS'other'
p17
aS'some'
p18
asS'forget'
p19
(lp20
S'remember'
p21
aS'forgotten'
p22
aS'forgetting'
p23
aS'forgets'
p24
aS'forgot'
p25
aS'know'
p26
aS'remind'
p27
aS'foget'
p28
aS'overlook'
p29
aS'realize'
p30
asS'raining'
p31
(lp32
S'rained'
p33
aS'snowing'
p34
aS'rain'
p35
aS'sleeting'
p36
aS'drizzling'
p37
aS'windy'
p38
aS'torrentially'
p39
asS'dance'
p40
(lp41
S'dancing'
p42
aS'dances'
p43
aS'dancers'
p44
aS'Dance'
p45
aS'dancer'
p46
aS'ballet'
p47
asS'skip'
p48
(lp49
S'skipping'
p50
aS'skipped'
p51
aS'forgo'
p52
aS'forego'
p53
aS'skips'
p54
aS'Skipping'
p55
aS'miss'
p56
aS'defer'
p57
aS'cancel'
p58
aS'postpone'
p59
asS'activated'
p60
(lp61
S'activate'
p62
aS'activating'
p63
aS'activates'
p64
aS'deactivated'
p65
aS'activiated'
p66
aS'Activated'
p67
aS'activation'
p68
aS'reactivated'
p69
aS'deactivate'
p70
asS'month'
p71
(lp72
S'week'
p73
aS'year'
p74
aS'months'
p75
aS'weeks'
p76
aS'August'
p77
aS'February'
p78
aS'October'
p79
aS'January'
p80
aS'day'
p81
aS'September'
p82
asS'manager'
p83
(lp84
S'manger'
p85
aS'director'
p86
aS'mananger'
p87
aS'Manager'
p88
aS'vp'
p89
aS'supervisor'
p90
aS'vicepresident'
p91
asS'sleep'
p92
(lp93
S'sleeping'
p94
aS'slept'
p95
aS'nap'
p96
aS'wakings'
p97
aS'naps'
p98
aS'Sleep'
p99
aS'doze'
p100
asS'gb'
p101
(lp102
S'2gb'
p103
aS'usb'
p104
aS'os'
p105
aS'4gb'
p106
aS'sony'
p107
aS'directx'
p108
aS'ssd'
p109
aS'drm'
p110
asS'6pm'
p111
(lp112
S'7pm'
p113
aS'4pm'
p114
aS'5pm'
p115
aS'1pm'
p116
aS'2pm'
p117
aS'8pm'
p118
aS'3pm'
p119
asS'adjustment'
p120
(lp121
S'adjustments'
p122
aS'adjusting'
p123
aS'adjust'
p124
aS'readjustments'
p125
aS'readjustment'
p126
aS'adjusted'
p127
aS'changes'
p128
aS'Adjusting'
p129
asS'paris'
p130
(lp131
S'heidi'
p132
aS'london'
p133
aS'france'
p134
aS'dubai'
p135
aS'samuel'
p136
aS'hilton'
p137
aS'rome'
p138
aS'toronto'
p139
asS'concerned'
p140
(lp141
S'worried'
p142
aS'alarmed'
p143
aS'apprehensive'
p144
aS'aware'
p145
aS'concered'
p146
aS'worry'
p147
aS'unconcerned'
p148
aS'worrying'
p149
asS'gp'
p150
(lp151
S'pmc'
p152
aS'abr'
p153
aS'dca'
p154
asS'thursday'
p155
(lp156
S'tuesday'
p157
aS'monday'
p158
aS'saturday'
p159
aS'friday'
p160
aS'wednesday'
p161
aS'sunday'
p162
aS'feb'
p163
aS'tues'
p164
aS'tommorow'
p165
aS'thurs'
p166
asS'presents'
p167
(lp168
S'presenting'
p169
aS'poses'
p170
aS'introduces'
p171
aS'present'
p172
aS'creates'
p173
aS'presented'
p174
aS'examines'
p175
aS'offers'
p176
aS'affords'
p177
aS'provides'
p178
asS'finally'
p179
(lp180
S'FINALLY'
p181
aS'belatedly'
p182
aS'eventually'
p183
aS'again'
p184
aS'once'
p185
aS'then'
p186
aS'before'
p187
aS'when'
p188
aS'soon'
p189
asS'those'
p190
(lp191
S'these'
p192
aS'Those'
p193
aS'other'
p194
aS'all'
p195
aS'many'
p196
aS'some'
p197
aS'ones'
p198
aS'others'
p199
aS'them'
p200
aS'they'
p201
asS'presentation'
p202
(lp203
S'presentations'
p204
aS'Presentation'
p205
aS'presention'
p206
aS'lecture'
p207
aS'keynote'
p208
asS'meetings'
p209
(lp210
S'meeting'
p211
aS'Meetings'
p212
aS'conferences'
p213
aS'roundtables'
p214
aS'discussions'
p215
aS'briefings'
p216
aS'hearings'
p217
aS'consultations'
p218
asS'appointment'
p219
(lp220
S'appointments'
p221
aS'Appointment'
p222
aS'appointing'
p223
aS'reappointment'
p224
aS'Appointments'
p225
aS'appoint'
p226
aS'appoinment'
p227
aS'appointed'
p228
aS'resignation'
p229
aS'appointement'
p230
asS'every'
p231
(lp232
S'Every'
p233
aS'each'
p234
aS'EVERY'
p235
aS'Each'
p236
aS'this'
p237
aS'evey'
p238
aS'another'
p239
aS'everybody'
p240
aS'everyone'
p241
aS'entire'
p242
asS'jack'
p243
(lp244
S'jacks'
p245
asS'showroom'
p246
(lp247
S'showrooms'
p248
aS'Showroom'
p249
aS'dealership'
p250
aS'Showrooms'
p251
aS'shop'
p252
aS'motorshow'
p253
aS'BoConcept'
p254
aS'Motorshow'
p255
asS'tickets'
p256
(lp257
S'ticket'
p258
aS'tix'
p259
aS'Tickets'
p260
aS'Ticket'
p261
aS'TICKETS'
p262
aS'ticketing'
p263
aS'ticketholders'
p264
asS'heaven'
p265
(lp266
S'Heaven'
p267
aS'heavenly'
p268
aS'heavens'
p269
aS'god'
p270
aS'God'
p271
aS'hell'
p272
asS'did'
p273
(lp274
S'not'
p275
aS'does'
p276
aS'do'
p277
aS'would'
p278
aS'wanted'
p279
aS'Did'
p280
aS'could'
p281
aS"didn't"
p282
asS'list'
p283
(lp284
S'lists'
p285
aS'List'
p286
aS'Lists'
p287
aS'wishlist'
p288
aS'blacklist'
p289
aS'watchlist'
p290
aS'listof'
p291
aS'listing'
p292
aS'listed'
p293
asS'wednesday'
p294
(lp295
S'monday'
p296
aS'thursday'
p297
aS'tuesday'
p298
aS'saturday'
p299
aS'friday'
p300
aS'sunday'
p301
aS'tommorow'
p302
aS'feb'
p303
aS'tommorrow'
p304
aS'july'
p305
asS'leave'
p306
(lp307
S'leaving'
p308
aS'stay'
p309
aS'depart'
p310
aS'Leaving'
p311
aS'left'
p312
aS'leaves'
p313
aS'return'
p314
aS'vacate'
p315
aS'quit'
p316
aS'rejoin'
p317
asS'p'
p318
(lp319
S'd'
p320
asS'team'
p321
(lp322
S'squad'
p323
aS'teams'
p324
aS'Team'
p325
aS'teammates'
p326
aS'league'
p327
aS'sqaud'
p328
aS'coach'
p329
aS'players'
p330
aS'Duease'
p331
asS'deadline'
p332
(lp333
S'deadlines'
p334
aS'Deadline'
p335
aS'dealine'
p336
aS'Deadlines'
p337
aS'deadine'
p338
aS'timetable'
p339
asS'force'
p340
(lp341
S'forces'
p342
aS'subdue'
p343
aS'firepower'
p344
aS'army'
p345
asS'tired'
p346
(lp347
S'fatigued'
p348
aS'weary'
p349
aS'bored'
p350
aS'Tired'
p351
aS'tiring'
p352
aS'frustrated'
p353
aS'irritated'
p354
aS'annoyed'
p355
aS'antsy'
p356
aS'tiresome'
p357
asS'go'
p358
(lp359
S'come'
p360
aS'goes'
p361
aS'gone'
p362
aS'going'
p363
aS'get'
p364
aS'went'
p365
aS'do'
p366
aS'sit'
p367
aS'stay'
p368
aS'Going'
p369
asS'hopefully'
p370
(lp371
S'Hopefully'
p372
aS'hope'
p373
aS"'ll"
p374
aS'hoping'
p375
aS'definitely'
p376
aS'maybe'
p377
aS'going'
p378
aS'Hopefuly'
p379
asS'what'
p380
(lp381
S'exactly'
p382
aS'how'
p383
aS'What'
p384
aS'something'
p385
aS'why'
p386
aS'everything'
p387
aS'really'
p388
aS'anything'
p389
aS'know'
p390
aS'actually'
p391
asS'liam'
p392
(lp393
S'travis'
p394
aS'lindsey'
p395
aS'derek'
p396
aS'nigel'
p397
aS'courtney'
p398
aS'rebecca'
p399
aS'darren'
p400
aS'ritchie'
p401
aS'gallagher'
p402
aS'richards'
p403
asS'availability'
p404
(lp405
S'Availability'
p406
aS'availablity'
p407
aS'availabilty'
p408
aS'availablility'
p409
aS'unavailability'
p410
aS'availibility'
p411
aS'available'
p412
aS'utilization'
p413
asS'new'
p414
(lp415
S'revamped'
p416
aS'thenew'
p417
aS'newest'
p418
aS'newly'
p419
aS'revamps'
p420
aS'newer'
p421
aS'existing'
p422
aS'groundbreaking'
p423
asS'ever'
p424
(lp425
S'EVER'
p426
aS'never'
p427
aS'arguably'
p428
aS'imagined'
p429
aS"'ve"
p430
aS'even'
p431
aS'Ever'
p432
aS'anything'
p433
aS'since'
p434
asS'told'
p435
(lp436
S'tells'
p437
aS'said'
p438
aS'quoted'
p439
aS'telling'
p440
aS'toldThe'
p441
aS'toldthe'
p442
aS'confided'
p443
aS'explained'
p444
aS'tolds'
p445
aS'spoke'
p446
asS'full'
p447
(lp448
S'Full'
p449
aS'afull'
p450
aS'complete'
p451
aS'FULL'
p452
aS'fuller'
p453
asS'visting'
p454
(lp455
S'visiting'
p456
aS'Visiting'
p457
aS'visitng'
p458
aS'visit'
p459
aS'vist'
p460
aS'visited'
p461
aS'visits'
p462
aS'visted'
p463
aS'vists'
p464
aS'visist'
p465
asS'never'
p466
(lp467
S'not'
p468
aS'nobody'
p469
aS'rarely'
p470
aS'seldom'
p471
aS'anything'
p472
aS'once'
p473
aS'always'
p474
aS'Never'
p475
aS"'ve"
p476
aS'none'
p477
asS'french'
p478
(lp479
S'French'
p480
aS'france'
p481
aS'dutch'
p482
aS'italian'
p483
aS'portuguese'
p484
aS'spanish'
p485
aS'german'
p486
aS'francais'
p487
aS'english'
p488
asS'hours'
p489
(lp490
S'days'
p491
aS'hour'
p492
aS'minutes'
p493
aS'weeks'
p494
aS'day'
p495
aS'months'
p496
aS"o'clock"
p497
asS'let'
p498
(lp499
S'letting'
p500
aS'Let'
p501
aS'do'
p502
aS'want'
p503
aS'lets'
p504
aS'allow'
p505
aS'try'
p506
aS'dare'
p507
aS'Letting'
p508
asS'pancake'
p509
(lp510
S'pancakes'
p511
aS'flapjacks'
p512
aS'waffle'
p513
aS'spaghetti'
p514
aS'sausage'
p515
aS'shortcakes'
p516
asS'november'
p517
(lp518
S'september'
p519
aS'april'
p520
aS'january'
p521
aS'december'
p522
aS'october'
p523
aS'july'
p524
aS'june'
p525
aS'february'
p526
aS'feb'
p527
aS'tuesday'
p528
asS'teacher'
p529
(lp530
S'teachers'
p531
aS'Teacher'
p532
aS'elementary'
p533
aS'schoolteacher'
p534
aS'school'
p535
aS'pupil'
p536
aS'student'
p537
aS'paraprofessional'
p538
asS'change'
p539
(lp540
S'changes'
p541
aS'changing'
p542
aS'changed'
p543
aS'alter'
p544
aS'shift'
p545
aS'Changing'
p546
aS'Change'
p547
aS'Changes'
p548
aS'altering'
p549
asS'search'
p550
(lp551
S'searches'
p552
aS'Search'
p553
aS'seach'
p554
aS'searching'
p555
aS'Searches'
p556
aS'searched'
p557
aS'searchers'
p558
aS'Searching'
p559
aS'combing'
p560
aS'scour'
p561
asS'daughter'
p562
(lp563
S'mother'
p564
aS'niece'
p565
aS'granddaughter'
p566
aS'son'
p567
aS'daughters'
p568
aS'sister'
p569
aS'stepdaughter'
p570
aS'wife'
p571
aS'grandmother'
p572
asS'ahead'
p573
(lp574
S'Ahead'
p575
aS'behind'
p576
aS'forward'
p577
aS'next'
p578
aS'closer'
p579
aS'back'
p580
aS'away'
p581
aS'before'
p582
aS'final'
p583
asS'receive'
p584
(lp585
S'recieve'
p586
aS'receives'
p587
aS'received'
p588
aS'receiving'
p589
aS'toreceive'
p590
aS'provide'
p591
aS'receieve'
p592
aS'recieves'
p593
aS'earn'
p594
asS'involved'
p595
(lp596
S'engaged'
p597
aS'invovled'
p598
aS'volved'
p599
aS'Involved'
p600
aS'participated'
p601
aS'involed'
p602
aS'involvement'
p603
aS'implicated'
p604
asS'leaves'
p605
(lp606
S'leaving'
p607
aS'arrives'
p608
aS'left'
p609
aS'Leaves'
p610
aS'leave'
p611
aS'departs'
p612
aS'lingers'
p613
aS'vanishes'
p614
aS'stalks'
p615
aS'sends'
p616
asS'changed'
p617
(lp618
S'altered'
p619
aS'changing'
p620
aS'change'
p621
aS'alter'
p622
aS'shifted'
p623
aS'alters'
p624
aS'altering'
p625
aS'rethought'
p626
asS'bot'
p627
(lp628
S'bots'
p629
aS'botnet'
p630
aS'botmaster'
p631
aS'Bots'
p632
aS'botnets'
p633
aS'robot'
p634
aS'Conficker.C'
p635
aS'robots'
p636
asS'airport'
p637
(lp638
S'Airport'
p639
aS'aiport'
p640
aS'airports'
p641
aS'Aiport'
p642
asS'pick'
p643
(lp644
S'picks'
p645
aS'picking'
p646
aS'picked'
p647
aS'Pick'
p648
aS'Picking'
p649
aS'select'
p650
aS'draft'
p651
asS'kathmandu'
p652
(lp653
S'Simikot'
p654
aS'Jaleshwor'
p655
aS'Bhadrapur'
p656
aS'Ghorahi'
p657
aS'Damauli'
p658
aS'MAHENDRANAGAR'
p659
aS'Lainchaur'
p660
asS'postponed'
p661
(lp662
S'rescheduled'
p663
aS'delayed'
p664
aS'postpone'
p665
aS'canceled'
p666
aS'postponement'
p667
aS'postponing'
p668
aS'posponed'
p669
asS'extra'
p670
(lp671
S'additional'
p672
aS'Extra'
p673
aS'additonal'
p674
aS'exta'
p675
aS'spare'
p676
aS'addtional'
p677
aS'special'
p678
aS'plus'
p679
asS'apr'
p680
(lp681
S'gma'
p682
aS'jh'
p683
aS'wjh'
p684
aS'jb'
p685
asS'kayak'
p686
(lp687
S'canoe'
p688
aS'kayaks'
p689
aS'kayaking'
p690
aS'boat'
p691
aS'Kayaking'
p692
aS'kayakers'
p693
asS'guests'
p694
(lp695
S'Guests'
p696
aS'guest'
p697
aS'VIPs'
p698
aS'attendees'
p699
aS'patrons'
p700
aS'invitees'
p701
aS'partygoers'
p702
aS'visitors'
p703
asS'total'
p704
(lp705
S'whopping'
p706
aS'cumulative'
p707
aS'toal'
p708
aS'totaled'
p709
aS'approximately'
p710
aS'totals'
p711
aS'roughly'
p712
asS'from'
p713
(lp714
S'fromthe'
p715
aS'fom'
p716
aS'in'
p717
aS'froma'
p718
aS'fr?m'
p719
aS'From'
p720
aS'after'
p721
aS'where'
p722
aS'fron'
p723
aS'through'
p724
asS'working'
p725
(lp726
S'worked'
p727
aS'work'
p728
aS'Working'
p729
aS'collaborating'
p730
aS'works'
p731
aS'toiling'
p732
aS'trying'
p733
aS'striving'
p734
aS'doing'
p735
asS'sake'
p736
(lp737
S'sakes'
p738
aS'sacrificing'
p739
aS'selfishly'
p740
aS'sacrificed'
p741
aS'discrace'
p742
asS'visit'
p743
(lp744
S'vist'
p745
aS'visiting'
p746
aS'visits'
p747
aS'Visit'
p748
aS'visited'
p749
aS'visist'
p750
aS'trip'
p751
aS'visted'
p752
aS'visitthe'
p753
asS'two'
p754
(lp755
S'three'
p756
aS'four'
p757
aS'five'
p758
aS'six'
p759
aS'seven'
p760
aS'eight'
p761
aS'nine'
p762
aS'several'
p763
aS'Two'
p764
aS'couple'
p765
asS'next'
p766
(lp767
S'Next'
p768
aS'last'
p769
aS'sometime'
p770
aS'later'
p771
aS'tomorrow'
p772
aS'final'
p773
aS'thenext'
p774
aS"'ll"
p775
aS'upcoming'
p776
aS'will'
p777
asS'6'
p778
(lp779
S'5'
p780
aS'8'
p781
aS'7'
p782
aS'4'
p783
aS'3'
p784
aS'9'
p785
aS'2'
p786
aS'1'
p787
asS'until'
p788
(lp789
S'till'
p790
aS'Until'
p791
aS'til'
p792
aS'before'
p793
aS'unitl'
p794
aS'unless'
p795
aS'untill'
p796
aS'when'
p797
aS'sometime'
p798
aS'but'
p799
asS'today'
p800
(lp801
S'tomorrow'
p802
aS'yesterday'
p803
aS'Thursday'
p804
aS'Wednesday'
p805
aS'Monday'
p806
aS'Tuesday'
p807
aS'Friday'
p808
aS'Today'
p809
aS'Wednesay'
p810
aS'tommorrow'
p811
asS'more'
p812
(lp813
S'less'
p814
aS'than'
p815
aS'More'
p816
aS'fewer'
p817
aS'mroe'
p818
aS'rather'
p819
aS'most'
p820
aS'Less'
p821
aS'greater'
p822
aS'little'
p823
asS'door'
p824
(lp825
S'doors'
p826
aS'window'
p827
aS'doorway'
p828
aS'jimmying'
p829
aS'ajar'
p830
asS'upcoming'
p831
(lp832
S'forthcoming'
p833
aS'Upcoming'
p834
aS'upcomming'
p835
aS'next'
p836
aS'impending'
p837
aS'Forthcoming'
p838
aS'future'
p839
asS'club'
p840
(lp841
S'clubs'
p842
aS'league'
p843
aS'club.The'
p844
aS'theclub'
p845
aS'Club'
p846
asS'haha'
p847
(lp848
S'lol'
p849
aS'hahaha'
p850
aS'lmao'
p851
aS'cuz'
p852
aS'hahahaha'
p853
aS'hahah'
p854
aS'Hahaha'
p855
aS'hehe'
p856
aS'thats'
p857
asS'must'
p858
(lp859
S'should'
p860
aS'can'
p861
aS'ought'
p862
aS'will'
p863
aS'need'
p864
aS'may'
p865
aS'MUST'
p866
aS'shall'
p867
aS'required'
p868
aS'could'
p869
asS'me'
p870
(lp871
S'us'
p872
aS'him'
p873
aS'I'
p874
aS'myself'
p875
aS'my'
p876
aS'somebody'
p877
aS'really'
p878
aS'them'
p879
aS'\xd4I'
p880
aS'everybody'
p881
asS'room'
p882
(lp883
S'rooms'
p884
aS'upstairs'
p885
aS'hallway'
p886
aS'downstairs'
p887
aS'bathroom'
p888
aS'kitchenette'
p889
aS'basement'
p890
aS'lounge'
p891
asS'hour'
p892
(lp893
S'hours'
p894
aS'minutes'
p895
aS'minute'
p896
aS'hourlong'
p897
aS'halfhour'
p898
aS'day'
p899
asS'f'
p900
(lp901
S'b'
p902
aS'h'
p903
aS'j'
p904
aS'ckers'
p905
asS'this'
p906
(lp907
S'the'
p908
aS'another'
p909
aS'that'
p910
aS'last'
p911
aS'it'
p912
aS'here'
p913
aS'we'
p914
aS"it'sa"
p915
aS'every'
p916
aS'This'
p917
asS'work'
p918
(lp919
S'working'
p920
aS'works'
p921
aS'worked'
p922
aS'Work'
p923
aS'towork'
p924
aS'job'
p925
aS'Working'
p926
aS'labors'
p927
asS'can'
p928
(lp929
S'could'
p930
aS'should'
p931
aS'must'
p932
aS'will'
p933
aS'may'
p934
aS'want'
p935
aS"'ll"
p936
aS'Can'
p937
aS'need'
p938
aS'ought'
p939
asS'mr'
p940
(lp941
S'david'
p942
aS'mrs'
p943
aS'nigel'
p944
aS'robert'
p945
aS'bryan'
p946
aS'christopher'
p947
aS'paul'
p948
aS'george'
p949
aS'cameron'
p950
aS'liam'
p951
asS'meet'
p952
(lp953
S'meets'
p954
aS'met'
p955
aS'tomeet'
p956
aS'fulfill'
p957
aS'satisfy'
p958
aS'meeting'
p959
aS'Meet'
p960
aS'discuss'
p961
aS'meetthe'
p962
asS'blarney'
p963
(lp964
S'begrudgery'
p965
aS'craic'
p966
aS'Oirish'
p967
aS'blather'
p968
aS'begorrah'
p969
aS'brogue'
p970
aS'culchie'
p971
aS'auld'
p972
asS'my'
p973
(lp974
S'My'
p975
aS'I'
p976
aS'myself'
p977
aS'me'
p978
aS'your'
p979
aS'inmy'
p980
aS'his'
p981
aS'her'
p982
aS'onmy'
p983
aS'yours'
p984
asS'kenny'
p985
(lp986
S'ronnie'
p987
aS'gordon'
p988
aS'gareth'
p989
aS'richards'
p990
aS'willie'
p991
aS"o'brien"
p992
aS'blackburn'
p993
aS'gibbs'
p994
aS'neville'
p995
aS'robbie'
p996
asS'give'
p997
(lp998
S'giving'
p999
aS'gave'
p1000
aS'Give'
p1001
aS'gives'
p1002
aS'provide'
p1003
aS'given'
p1004
aS'Giving'
p1005
aS'take'
p1006
aS'get'
p1007
aS'togive'
p1008
asS'organized'
p1009
(lp1010
S'Organized'
p1011
aS'Organised'
p1012
aS'organizing'
p1013
aS'organize'
p1014
aS'organsied'
p1015
aS'organizes'
p1016
aS'orgainsed'
p1017
aS'coordinated'
p1018
aS'sponsored'
p1019
aS'staged'
p1020
asS'tag'
p1021
(lp1022
S'tags'
p1023
aS'tagging'
p1024
aS'tagged'
p1025
aS'Tag'
p1026
asS'want'
p1027
(lp1028
S'do'
p1029
aS'wanted'
p1030
aS'need'
p1031
aS'can'
p1032
aS'wanting'
p1033
aS'prefer'
p1034
aS'wanna'
p1035
aS'wants'
p1036
aS'wantto'
p1037
aS'going'
p1038
asS'times'
p1039
(lp1040
S'twice'
p1041
aS'occasions'
p1042
aS'days'
p1043
aS'years'
p1044
aS'occassions'
p1045
aS'time'
p1046
aS'past'
p1047
aS'periods'
p1048
aS'hours'
p1049
aS'quarters'
p1050
asS'tak'
p1051
(lp1052
S'nao'
p1053
aS'kaha'
p1054
aS'ki'
p1055
aS'ra'
p1056
aS'kar'
p1057
aS'ti'
p1058
aS'hun'
p1059
aS'ta'
p1060
aS'sab'
p1061
aS'jao'
p1062
asS'information'
p1063
(lp1064
S'info'
p1065
aS'infomation'
p1066
aS'informaiton'
p1067
aS'informationon'
p1068
aS'informationabout'
p1069
aS'Information'
p1070
aS'informaion'
p1071
aS'details'
p1072
asS'needs'
p1073
(lp1074
S'need'
p1075
aS'needed'
p1076
aS'wants'
p1077
aS'Needs'
p1078
aS'must'
p1079
aS'desires'
p1080
aS'needing'
p1081
aS'requirements'
p1082
aS'should'
p1083
aS'demands'
p1084
asS'end'
p1085
(lp1086
S'ending'
p1087
aS'ends'
p1088
aS'beginning'
p1089
aS'ended'
p1090
aS'theend'
p1091
aS'endof'
p1092
aS'midpoint'
p1093
aS'start'
p1094
aS'prolong'
p1095
aS'mid'
p1096
asS'1'
p1097
(lp1098
S'2'
p1099
aS'3'
p1100
aS'4'
p1101
aS'5'
p1102
aS'6'
p1103
aS'8'
p1104
aS'7'
p1105
aS'9'
p1106
asS'till'
p1107
(lp1108
S'until'
p1109
aS'untill'
p1110
aS'Till'
p1111
aS'til'
p1112
aS'uptill'
p1113
aS'upto'
p1114
aS'uptil'
p1115
aS'onwards'
p1116
aS'wef'
p1117
aS'preponed'
p1118
asS'sunday'
p1119
(lp1120
S'saturday'
p1121
aS'monday'
p1122
aS'thursday'
p1123
aS'friday'
p1124
aS'tuesday'
p1125
aS'sundays'
p1126
aS'saturdays'
p1127
aS'wednesday'
p1128
aS'nite'
p1129
aS'tonite'
p1130
asS'instead'
p1131
(lp1132
S'rather'
p1133
aS'Instead'
p1134
aS'Rather'
p1135
aS'merely'
p1136
aS'while'
p1137
aS'simply'
p1138
aS'thereby'
p1139
aS'Or'
p1140
aS'mindlessly'
p1141
aS'preferring'
p1142
asS'pint'
p1143
(lp1144
S'pints'
p1145
aS'quart'
p1146
aS'cuppa'
p1147
aS'lager'
p1148
asS'plans'
p1149
(lp1150
S'plan'
p1151
aS'planned'
p1152
aS'intends'
p1153
aS'Plans'
p1154
aS'plansto'
p1155
aS'planning'
p1156
aS'proposal'
p1157
aS'proposals'
p1158
aS'proposed'
p1159
aS'wants'
p1160
asS'attend'
p1161
(lp1162
S'attending'
p1163
aS'attended'
p1164
aS'participate'
p1165
aS'attends'
p1166
aS'Attending'
p1167
aS'Attend'
p1168
aS'enroll'
p1169
aS'particpate'
p1170
aS'partake'
p1171
aS'join'
p1172
asS'may'
p1173
(lp1174
S'might'
p1175
aS'could'
p1176
aS'should'
p1177
aS'can'
p1178
aS'will'
p1179
aS'would'
p1180
aS'must'
p1181
aS'likely'
p1182
aS'Should'
p1183
aS'Could'
p1184
asS'stop'
p1185
(lp1186
S'stopped'
p1187
aS'stopping'
p1188
aS'stops'
p1189
aS'Stop'
p1190
aS'halt'
p1191
aS'prevent'
p1192
aS'Stopping'
p1193
aS'cease'
p1194
aS'dissuade'
p1195
aS'deter'
p1196
asS'after'
p1197
(lp1198
S'before'
p1199
aS'After'
p1200
aS'following'
p1201
aS'afer'
p1202
aS'later'
p1203
aS'shortly'
p1204
aS'last'
p1205
aS'earlier'
p1206
aS'when'
p1207
aS'Shortly'
p1208
asS'lab'
p1209
(lp1210
S'laboratory'
p1211
aS'labs'
p1212
aS'laboratories'
p1213
aS'Lab'
p1214
aS'Laboratory'
p1215
aS'labratory'
p1216
asS'mac'
p1217
(lp1218
S'macs'
p1219
aS'mozilla'
p1220
aS'microsoft'
p1221
aS'os'
p1222
aS'photoshop'
p1223
aS'zune'
p1224
aS'xp'
p1225
aS'openoffice'
p1226
aS'macintosh'
p1227
asS'birthday'
p1228
(lp1229
S'birthdays'
p1230
aS'Birthday'
p1231
aS'brithday'
p1232
aS"b'day"
p1233
aS'bday'
p1234
aS'anniversary'
p1235
asS'coming'
p1236
(lp1237
S'come'
p1238
aS'going'
p1239
aS'Coming'
p1240
aS'heading'
p1241
aS'came'
p1242
aS'getting'
p1243
aS'go'
p1244
aS'comin'
p1245
aS'next'
p1246
aS'bringing'
p1247
asS'date'
p1248
(lp1249
S'dates'
p1250
aS'Dates'
p1251
aS'rescheduled'
p1252
asS'guys'
p1253
(lp1254
S'fellas'
p1255
aS'guy'
p1256
aS'Guys'
p1257
aS'dudes'
p1258
aS'really'
p1259
asS'man'
p1260
(lp1261
S'woman'
p1262
aS'boy'
p1263
aS'teenager'
p1264
aS'girl'
p1265
aS'robber'
p1266
aS'men'
p1267
asS'danny'
p1268
(lp1269
S'derek'
p1270
aS'wallace'
p1271
aS'kyle'
p1272
aS'kevin'
p1273
aS'richards'
p1274
aS'corey'
p1275
aS'willie'
p1276
aS'nikki'
p1277
aS'ryan'
p1278
aS'eddie'
p1279
asS'remember'
p1280
(lp1281
S'forget'
p1282
aS'remembering'
p1283
aS'remembered'
p1284
aS'know'
p1285
aS'recollect'
p1286
aS'remembers'
p1287
aS'remind'
p1288
aS'tell'
p1289
aS'reminded'
p1290
asS'johnson'
p1291
(lp1292
S'thompson'
p1293
aS'henry'
p1294
aS'wallace'
p1295
aS'jackson'
p1296
aS'williams'
p1297
aS'howard'
p1298
aS'anderson'
p1299
aS'davis'
p1300
aS'wilson'
p1301
aS'roberts'
p1302
asS'anytime'
p1303
(lp1304
S'whenever'
p1305
aS'anywhere'
p1306
aS'Anytime'
p1307
aS'unless'
p1308
aS'anyplace'
p1309
asS'9am'
p1310
(lp1311
S'8am'
p1312
aS'4pm'
p1313
aS'5pm'
p1314
aS'1pm'
p1315
aS'2pm'
p1316
aS'6pm'
p1317
aS'7am'
p1318
aS'3pm'
p1319
asS'so'
p1320
(lp1321
S'too'
p1322
aS'but'
p1323
aS'because'
p1324
aS'really'
p1325
aS'anyway'
p1326
aS'quite'
p1327
aS'very'
p1328
aS'pretty'
p1329
aS'just'
p1330
aS'obviously'
p1331
asS'agenda'
p1332
(lp1333
S'agendas'
p1334
aS'Agenda'
p1335
aS'priorities'
p1336
aS'priorties'
p1337
aS'frontburner'
p1338
aS'policy'
p1339
aS'Agendas'
p1340
asS'facebook'
p1341
(lp1342
S'Facebook'
p1343
aS'FaceBook'
p1344
aS'twitter'
p1345
aS'myspace'
p1346
aS'Twitter'
p1347
aS'linkedin'
p1348
asS'playing'
p1349
(lp1350
S'play'
p1351
aS'played'
p1352
aS'Playing'
p1353
aS'plays'
p1354
aS'game'
p1355
aS'playin'
p1356
aS'games'
p1357
aS'Played'
p1358
aS'practicing'
p1359
aS'player'
p1360
asS'help'
p1361
(lp1362
S'helping'
p1363
aS'helps'
p1364
aS'Help'
p1365
aS'tohelp'
p1366
aS'assist'
p1367
aS'helped'
p1368
aS'Helping'
p1369
aS'enable'
p1370
aS'try'
p1371
aS'needed'
p1372
asS'office'
p1373
(lp1374
S'offices'
p1375
aS'ofice'
p1376
aS'Office'
p1377
aS'offfice'
p1378
aS'desk'
p1379
aS'Offices'
p1380
aS'office.The'
p1381
aS'headquarters'
p1382
aS'branch'
p1383
asS'timeshift'
p1384
(lp1385
S'timeshifted'
p1386
aS'timeshifting'
p1387
aS'4OD'
p1388
aS'viewers'
p1389
asS'move'
p1390
(lp1391
S'moves'
p1392
aS'moving'
p1393
aS'push'
p1394
aS'moved'
p1395
aS'step'
p1396
aS'Moving'
p1397
aS'relocate'
p1398
aS'go'
p1399
aS'switch'
p1400
aS'leap'
p1401
asS'soon'
p1402
(lp1403
S'quickly'
p1404
aS'Soon'
p1405
aS'eventually'
p1406
aS'shortly'
p1407
aS'sometime'
p1408
aS'sooner'
p1409
aS'immediately'
p1410
aS'imminently'
p1411
aS'swiftly'
p1412
asS'years'
p1413
(lp1414
S'decades'
p1415
aS'months'
p1416
aS'decade'
p1417
aS'weeks'
p1418
aS'days'
p1419
aS'yeas'
p1420
aS'years.The'
p1421
aS'year'
p1422
aS'seasons'
p1423
asS'course'
p1424
(lp1425
S'courses'
p1426
aS'Course'
p1427
aS'Safriya'
p1428
aS'Courses'
p1429
asS'through'
p1430
(lp1431
S'thru'
p1432
aS'thorugh'
p1433
aS'throught'
p1434
aS'Through'
p1435
aS'into'
p1436
aS'across'
p1437
aS'via'
p1438
aS'throughthe'
p1439
aS'throughout'
p1440
aS'out'
p1441
asS'oven'
p1442
(lp1443
S'preheated'
p1444
aS'ovens'
p1445
aS'stovetop'
p1446
aS'stove'
p1447
aS'cooker'
p1448
asS'converting'
p1449
(lp1450
S'converted'
p1451
aS'convert'
p1452
aS'conversion'
p1453
aS'Converting'
p1454
aS'converts'
p1455
aS'coverting'
p1456
aS'conversions'
p1457
aS'transforming'
p1458
aS'Convert'
p1459
asS'still'
p1460
(lp1461
S'now'
p1462
aS'though'
p1463
aS'remains'
p1464
aS'remain'
p1465
aS'stil'
p1466
aS'but'
p1467
aS'although'
p1468
aS'yet'
p1469
aS'nonetheless'
p1470
aS'currently'
p1471
asS'its'
p1472
(lp1473
S'itself'
p1474
aS'Its'
p1475
aS'ofits'
p1476
aS'their'
p1477
aS'the'
p1478
aS'revamps'
p1479
aS'our'
p1480
aS'his'
p1481
aS'which'
p1482
aS'flagship'
p1483
asS'before'
p1484
(lp1485
S'after'
p1486
aS'Before'
p1487
aS'later'
p1488
aS'when'
p1489
aS'shortly'
p1490
aS'prior'
p1491
aS'until'
p1492
aS'then'
p1493
aS'After'
p1494
aS'last'
p1495
asS'revived'
p1496
(lp1497
S'resurrected'
p1498
aS'revives'
p1499
aS'reviving'
p1500
aS'revive'
p1501
aS'resuscitated'
p1502
aS'rekindled'
p1503
aS'reinvigorated'
p1504
aS'reignited'
p1505
aS'shelved'
p1506
aS'resurrect'
p1507
asS'group'
p1508
(lp1509
S'groups'
p1510
aS'organization'
p1511
aS'goup'
p1512
aS'Groups'
p1513
aS'advocacy'
p1514
aS'GROUP'
p1515
aS'consortium'
p1516
asS'how'
p1517
(lp1518
S'what'
p1519
aS'How'
p1520
aS'why'
p1521
aS'whether'
p1522
aS'exactly'
p1523
aS'so'
p1524
aS'howthe'
p1525
aS'way'
p1526
aS'really'
p1527
aS'Q.How'
p1528
asS'lo'
p1529
(lp1530
S'yah'
p1531
aS'hev'
p1532
aS'oh'
p1533
aS'uh'
p1534
aS'ah'
p1535
aS'Lo'
p1536
aS'ti'
p1537
aS'zo'
p1538
aS'mia'
p1539
aS'nce'
p1540
asS'll'
p1541
(lp1542
S'wil'
p1543
aS'wont'
p1544
aS'imma'
p1545
aS"u'll"
p1546
aS'cant'
p1547
aS'i'
p1548
aS'gona'
p1549
asS'archaeo'
p1550
(lp1551
S'geochronology'
p1552
aS'paleoecology'
p1553
aS'palaeontological'
p1554
aS'palaeontology'
p1555
asS'weeks'
p1556
(lp1557
S'months'
p1558
aS'days'
p1559
aS'week'
p1560
aS'years'
p1561
aS'month'
p1562
aS'hours'
p1563
aS'fortnight'
p1564
aS'decades'
p1565
aS'Months'
p1566
aS'weeks.The'
p1567
asS'holiday'
p1568
(lp1569
S'holidays'
p1570
aS'Christmas'
p1571
aS'festive'
p1572
aS'Thanksgiving'
p1573
aS'Holiday'
p1574
aS'Yuletide'
p1575
aS'Easter'
p1576
aS'Xmas'
p1577
aS'yuletide'
p1578
aS'Chirstmas'
p1579
asS'theo'
p1580
(lp1581
S'religio'
p1582
aS'allan'
p1583
aS'christ'
p1584
aS'extrem'
p1585
aS'francis'
p1586
aS'conserva'
p1587
aS'belli'
p1588
aS'moses'
p1589
aS'hahah'
p1590
asS'coffee'
p1591
(lp1592
S'coffees'
p1593
aS'Coffee'
p1594
aS'latt\xe9'
p1595
aS'cappuccino'
p1596
aS'espresso'
p1597
asS'good'
p1598
(lp1599
S'great'
p1600
aS'bad'
p1601
aS'terrific'
p1602
aS'decent'
p1603
aS'nice'
p1604
aS'excellent'
p1605
aS'fantastic'
p1606
aS'better'
p1607
aS'solid'
p1608
aS'lousy'
p1609
asS'thrones'
p1610
(lp1611
S'throne'
p1612
aS'kings'
p1613
aS'monarchies'
p1614
aS'noblemen'
p1615
aS'nobles'
p1616
aS'monarchs'
p1617
aS'princes'
p1618
asS'lunch'
p1619
(lp1620
S'lunches'
p1621
aS'meal'
p1622
aS'breakfast'
p1623
aS'Lunch'
p1624
aS'dinner'
p1625
aS'lunchtime'
p1626
aS'brunch'
p1627
asS'they'
p1628
(lp1629
S'we'
p1630
aS'them'
p1631
aS'They'
p1632
aS'their'
p1633
aS'do'
p1634
aS'not'
p1635
aS'theirs'
p1636
aS'have'
p1637
aS'themselves'
p1638
aS'ifthey'
p1639
asS'not'
p1640
(lp1641
S'do'
p1642
aS'did'
p1643
aS'anymore'
p1644
aS'necessarily'
p1645
aS'anything'
p1646
aS'anyway'
p1647
aS'does'
p1648
aS'never'
p1649
aS'want'
p1650
aS'neither'
p1651
asS'now'
p1652
(lp1653
S'still'
p1654
aS'Now'
p1655
aS'already'
p1656
aS'currently'
p1657
aS'presently'
p1658
aS'just'
p1659
aS'Right'
p1660
asS'twilight'
p1661
(lp1662
S'twilights'
p1663
aS'sunset'
p1664
aS'twighlight'
p1665
aS'dusk'
p1666
aS'gloaming'
p1667
aS'moonlight'
p1668
aS'darkness'
p1669
aS'dusks'
p1670
asS'day'
p1671
(lp1672
S'week'
p1673
aS'days'
p1674
aS'morning'
p1675
aS'month'
p1676
aS'hours'
p1677
aS'afternoon'
p1678
aS'hour'
p1679
aS'weekend'
p1680
aS'evening'
p1681
aS'time'
p1682
asS'february'
p1683
(lp1684
S'january'
p1685
aS'april'
p1686
aS'september'
p1687
aS'december'
p1688
aS'july'
p1689
aS'october'
p1690
aS'november'
p1691
aS'june'
p1692
aS'feb'
p1693
aS'norway'
p1694
asS'alex'
p1695
(lp1696
S'dave'
p1697
aS'paul'
p1698
aS'jeff'
p1699
aS'ryan'
p1700
aS'jamie'
p1701
aS'maxwell'
p1702
aS'henry'
p1703
aS'adrian'
p1704
aS'danny'
p1705
aS'emily'
p1706
asS'name'
p1707
(lp1708
S'names'
p1709
aS'surname'
p1710
aS'moniker'
p1711
aS'monikers'
p1712
aS'nickname'
p1713
aS'forename'
p1714
aS'pseudonym'
p1715
aS'monicker'
p1716
aS'Name'
p1717
asS'edit'
p1718
(lp1719
S'editing'
p1720
aS'delete'
p1721
aS'edits'
p1722
aS'upload'
p1723
aS'edited'
p1724
aS'annotate'
p1725
asS'didn'
p1726
(lp1727
S'couldn'
p1728
aS'wasn'
p1729
aS'wouldn'
p1730
aS'weren'
p1731
aS'hadn'
p1732
aS'hasn'
p1733
aS'shouldn'
p1734
aS'doesn'
p1735
asS'chuck'
p1736
(lp1737
S'chucking'
p1738
aS'chucks'
p1739
aS'chucked'
p1740
aS'pog'
p1741
aS'throwin'
p1742
aS'bruk'
p1743
aS'fulla'
p1744
aS'tossin'
p1745
aS'Chucking'
p1746
asS'weather'
p1747
(lp1748
S'Weather'
p1749
aS'weatherwise'
p1750
asS'each'
p1751
(lp1752
S'Each'
p1753
aS'every'
p1754
aS'individually'
p1755
aS'Every'
p1756
aS'one'
p1757
aS'individual'
p1758
aS'other'
p1759
aS'per'
p1760
aS'varying'
p1761
asS'pizza'
p1762
(lp1763
S'pizzas'
p1764
aS'Pizza'
p1765
aS'sandwich'
p1766
aS'burger'
p1767
aS'sandwiches'
p1768
asS'everyone'
p1769
(lp1770
S'everybody'
p1771
aS'Everyone'
p1772
aS'Everybody'
p1773
aS'nobody'
p1774
aS'anyone'
p1775
aS'everything'
p1776
aS'anybody'
p1777
aS'everbody'
p1778
aS'eveyone'
p1779
aS'EVERYONE'
p1780
asS'house'
p1781
(lp1782
S'houses'
p1783
aS'bungalow'
p1784
aS'apartment'
p1785
aS'bedroom'
p1786
aS'townhouse'
p1787
aS'residence'
p1788
aS'mansion'
p1789
aS'farmhouse'
p1790
aS'duplex'
p1791
aS'appartment'
p1792
asS'fish'
p1793
(lp1794
S'trout'
p1795
aS'catfish'
p1796
aS'fishes'
p1797
aS'salmon'
p1798
aS'sturgeon'
p1799
aS'mussels'
p1800
asS'spider'
p1801
(lp1802
S'spiders'
p1803
aS'arachnid'
p1804
aS'snake'
p1805
aS'lizard'
p1806
aS'toad'
p1807
aS'scorpion'
p1808
aS'tarantula'
p1809
asS'taxes'
p1810
(lp1811
S'tax'
p1812
aS'Taxes'
p1813
aS'taxation'
p1814
aS'levies'
p1815
aS'surtaxes'
p1816
aS'Tax'
p1817
aS'surtax'
p1818
asS'year'
p1819
(lp1820
S'month'
p1821
aS'week'
p1822
aS'months'
p1823
aS'decade'
p1824
aS'years'
p1825
aS'summer'
p1826
aS'year.The'
p1827
aS'September'
p1828
aS'weeks'
p1829
aS'season'
p1830
asS'our'
p1831
(lp1832
S'we'
p1833
aS'Our'
p1834
aS'us'
p1835
aS'ourselves'
p1836
aS'your'
p1837
aS'my'
p1838
aS'ours'
p1839
aS'ofour'
p1840
aS'toour'
p1841
aS'We'
p1842
asS'event'
p1843
(lp1844
S'events'
p1845
aS'Event'
p1846
aS'extravaganza'
p1847
aS'fundraiser'
p1848
aS'event.The'
p1849
aS'festival'
p1850
aS'gala'
p1851
aS'fundrasier'
p1852
asS'out'
p1853
(lp1854
S'down'
p1855
aS'off'
p1856
aS'back'
p1857
aS'in.'
p1858
aS'away'
p1859
aS'into'
p1860
aS'up'
p1861
aS'outthe'
p1862
aS'onto'
p1863
aS'then'
p1864
asS'donnybrook'
p1865
(lp1866
S'slugfest'
p1867
aS'skirmish'
p1868
aS'tussle'
p1869
aS'showdown'
p1870
aS'fisticuffs'
p1871
aS'catfight'
p1872
asS'jackson'
p1873
(lp1874
S'johnson'
p1875
aS'williams'
p1876
aS'thompson'
p1877
aS'michael'
p1878
aS'thomas'
p1879
aS'anderson'
p1880
aS'lewis'
p1881
aS'evans'
p1882
aS'crawford'
p1883
aS'anthony'
p1884
asS'missed'
p1885
(lp1886
S'miss'
p1887
aS'misses'
p1888
aS'Missed'
p1889
aS'skipped'
p1890
aS'misfired'
p1891
aS'missing'
p1892
aS'misssed'
p1893
asS'4pm'
p1894
(lp1895
S'2pm'
p1896
aS'1pm'
p1897
aS'6pm'
p1898
aS'5pm'
p1899
aS'3pm'
p1900
aS'9am'
p1901
aS'7pm'
p1902
asS'nepal'
p1903
(lp1904
S'nepali'
p1905
aS'dhaka'
p1906
aS'lanka'
p1907
aS'anil'
p1908
aS'irfan'
p1909
aS'rahul'
p1910
aS'thailand'
p1911
aS'kiran'
p1912
asS'participants'
p1913
(lp1914
S'attendees'
p1915
aS'particpants'
p1916
aS'Participants'
p1917
aS'participant'
p1918
aS'participators'
p1919
aS'partcipants'
p1920
aS'registrants'
p1921
aS'partipants'
p1922
aS'participating'
p1923
asS'surprise'
p1924
(lp1925
S'suprise'
p1926
aS'surprising'
p1927
aS'shocker'
p1928
aS'surpise'
p1929
aS'surprises'
p1930
aS'surprised'
p1931
aS'shock'
p1932
aS'disappointment'
p1933
aS'suprising'
p1934
asS'postpone'
p1935
(lp1936
S'postponing'
p1937
aS'postponed'
p1938
aS'reschedule'
p1939
aS'postponement'
p1940
aS'cancel'
p1941
aS'defer'
p1942
aS'delay'
p1943
aS'delaying'
p1944
aS'delayed'
p1945
aS'suspend'
p1946
asS'hairdresser'
p1947
(lp1948
S'beautician'
p1949
aS'hairstylist'
p1950
aS'manicurist'
p1951
aS'hairdressers'
p1952
aS'stylist'
p1953
aS'barber'
p1954
aS'salon'
p1955
asS'friday'
p1956
(lp1957
S'monday'
p1958
aS'tuesday'
p1959
aS'saturday'
p1960
aS'thursday'
p1961
aS'sunday'
p1962
aS'wednesday'
p1963
aS'fridays'
p1964
aS'feb'
p1965
aS'july'
p1966
aS'tommorow'
p1967
asS'free'
p1968
(lp1969
S'Free'
p1970
aS'FREE'
p1971
aS'restricted'
p1972
aS'complimentary'
p1973
aS'afree'
p1974
asS'fred'
p1975
(lp1976
S'adrian'
p1977
aS'samuel'
p1978
aS'francis'
p1979
aS"o'brien"
p1980
aS'joseph'
p1981
aS'thompson'
p1982
aS'eric'
p1983
aS'whitney'
p1984
aS'bryan'
p1985
aS'dunn'
p1986
asS'appointments'
p1987
(lp1988
S'appointment'
p1989
aS'Appointments'
p1990
aS'reappointments'
p1991
aS'appointees'
p1992
aS'Appointment'
p1993
aS'appointing'
p1994
aS'appts'
p1995
asS'york'
p1996
(lp1997
S'nyc'
p1998
aS'brooklyn'
p1999
aS'london'
p2000
aS'denver'
p2001
aS'washington'
p2002
aS'philadelphia'
p2003
aS'baltimore'
p2004
aS'delhi'
p2005
aS'boston'
p2006
asS'put'
p2007
(lp2008
S'putting'
p2009
aS'puts'
p2010
aS'Putting'
p2011
aS'Put'
p2012
aS'placed'
p2013
aS'pull'
p2014
aS'bring'
p2015
aS'brought'
p2016
aS'pushed'
p2017
aS'come'
p2018
asS'philip'
p2019
(lp2020
S'adrian'
p2021
aS'nigel'
p2022
aS'samuel'
p2023
aS'travis'
p2024
aS'gemma'
p2025
asS'wanted'
p2026
(lp2027
S'want'
p2028
aS'tried'
p2029
aS'knew'
p2030
aS'did'
p2031
aS'wants'
p2032
aS'wanting'
p2033
aS'liked'
p2034
aS'decided'
p2035
aS'wished'
p2036
aS'hoped'
p2037
asS'training'
p2038
(lp2039
S'traning'
p2040
aS'Training'
p2041
aS'trainings'
p2042
aS'traing'
p2043
aS'trainning'
p2044
aS'trained'
p2045
aS'trainees'
p2046
aS'trainers'
p2047
aS'instructors'
p2048
asS'her'
p2049
(lp2050
S'she'
p2051
aS'herself'
p2052
aS'Her'
p2053
aS'hers'
p2054
aS'his'
p2055
aS'She'
p2056
aS'my'
p2057
aS'mother'
p2058
aS'woman'
p2059
asS'could'
p2060
(lp2061
S'would'
p2062
aS'might'
p2063
aS'may'
p2064
aS'can'
p2065
aS'should'
p2066
aS'will'
p2067
aS'conceivably'
p2068
aS'did'
p2069
aS'Could'
p2070
aS'possibly'
p2071
asS'days'
p2072
(lp2073
S'weeks'
p2074
aS'months'
p2075
aS'hours'
p2076
aS'years'
p2077
aS'day'
p2078
aS'week'
p2079
aS'month'
p2080
aS'minutes'
p2081
aS'decades'
p2082
aS'fortnight'
p2083
asS'david'
p2084
(lp2085
S'robert'
p2086
aS'jeff'
p2087
aS'jason'
p2088
aS'dave'
p2089
aS'mr'
p2090
aS'chris'
p2091
aS'paul'
p2092
aS'michael'
p2093
aS'richard'
p2094
aS'matthew'
p2095
asS'plane'
p2096
(lp2097
S'airplane'
p2098
aS'jet'
p2099
aS'planes'
p2100
aS'aircraft'
p2101
aS'jetliner'
p2102
aS'airliner'
p2103
aS'Cessna'
p2104
aS'Plane'
p2105
aS'flight'
p2106
asS'austin'
p2107
(lp2108
S'dallas'
p2109
aS'mitchell'
p2110
aS'atlanta'
p2111
aS'springfield'
p2112
aS'tx'
p2113
aS'arkansas'
p2114
aS'houston'
p2115
aS'minnesota'
p2116
aS'montgomery'
p2117
asS'first'
p2118
(lp2119
S'second'
p2120
aS'third'
p2121
aS'fourth'
p2122
aS'fifth'
p2123
aS'sixth'
p2124
aS'seventh'
p2125
aS'thefirst'
p2126
aS'last'
p2127
aS'eighth'
p2128
aS'final'
p2129
asS'rang'
p2130
(lp2131
S'ringing'
p2132
aS'phoned'
p2133
aS'telephoned'
p2134
aS'woke'
p2135
aS'came'
p2136
aS'sounded'
p2137
aS'went'
p2138
asS'there'
p2139
(lp2140
S"there'sa"
p2141
aS'There'
p2142
aS'no'
p2143
aS'theres'
p2144
aS'here'
p2145
aS'definite'
p2146
aS'going'
p2147
aS'we'
p2148
aS'exists'
p2149
aS'THere'
p2150
asS'feel'
p2151
(lp2152
S'feeling'
p2153
aS'felt'
p2154
aS'feels'
p2155
aS'think'
p2156
aS'know'
p2157
aS'really'
p2158
aS'Feeling'
p2159
aS'sense'
p2160
aS'feeing'
p2161
asS'walkers'
p2162
(lp2163
S'Walkers'
p2164
aS'bicyclers'
p2165
aS'bikers'
p2166
aS'cyclists'
p2167
asS'one'
p2168
(lp2169
S'only'
p2170
aS'two'
p2171
aS'three'
p2172
aS'five'
p2173
aS'four'
p2174
aS'One'
p2175
aS'another'
p2176
aS'most'
p2177
aS'seven'
p2178
aS'six'
p2179
asS'walter'
p2180
(lp2181
S'adrian'
p2182
aS'walsh'
p2183
aS'nigel'
p2184
aS'oliver'
p2185
aS'matthews'
p2186
aS'matthew'
p2187
aS'alexander'
p2188
aS'bryan'
p2189
aS'aaron'
p2190
aS'joan'
p2191
asS'notify'
p2192
(lp2193
S'notifying'
p2194
aS'notified'
p2195
aS'notifies'
p2196
aS'inform'
p2197
aS'notification'
p2198
aS'alerting'
p2199
aS'informing'
p2200
aS'alerted'
p2201
aS'Notifying'
p2202
asS'spanish'
p2203
(lp2204
S'Spanish'
p2205
aS'english'
p2206
aS'espa\xf1ol'
p2207
aS'spain'
p2208
aS'mexican'
p2209
aS'portuguese'
p2210
aS'mexicano'
p2211
aS'latino'
p2212
aS'gente'
p2213
aS'french'
p2214
asS'sounds'
p2215
(lp2216
S'sound'
p2217
aS'Sounds'
p2218
aS'sounded'
p2219
aS'sounding'
p2220
aS'Sounded'
p2221
aS'noises'
p2222
asS'tomorrow'
p2223
(lp2224
S'tonight'
p2225
aS'tommorow'
p2226
aS'tommorrow'
p2227
aS'tomorow'
p2228
aS'tomorrrow'
p2229
aS'today'
p2230
aS'Tomorrow'
p2231
aS'Saturday'
p2232
aS'Friday'
p2233
aS'Sunday'
p2234
asS'concert'
p2235
(lp2236
S'concerts'
p2237
aS'Concert'
p2238
aS'Concerts'
p2239
aS'recital'
p2240
asS'festival'
p2241
(lp2242
S'Festival'
p2243
aS'festivals'
p2244
aS'fest'
p2245
aS'Fest'
p2246
aS'Festivals'
p2247
aS'Fesitval'
p2248
asS'together'
p2249
(lp2250
S'gether'
p2251
aS'togther'
p2252
aS'cohesively'
p2253
aS'cohesive'
p2254
aS'Together'
p2255
aS'togehter'
p2256
aS'harmoniously'
p2257
aS'disparate'
p2258
asS'teo'
p2259
(lp2260
S'sau'
p2261
aS'cks'
p2262
aS'lika'
p2263
aS'hehehe'
p2264
aS'necesita'
p2265
aS'mang'
p2266
aS'suc'
p2267
aS'jc'
p2268
aS'nim'
p2269
asS'their'
p2270
(lp2271
S'they'
p2272
aS'themselves'
p2273
aS'thier'
p2274
aS'them'
p2275
aS'theirs'
p2276
aS'Their'
p2277
aS'our'
p2278
aS'intheir'
p2279
aS'oftheir'
p2280
aS'its'
p2281
asS'eddy'
p2282
(lp2283
S'eddies'
p2284
aS'currents'
p2285
aS'inlet'
p2286
aS'westerlies'
p2287
aS'airstream'
p2288
aS'shoreward'
p2289
aS'weedline'
p2290
aS'vortices'
p2291
aS'shoal'
p2292
asS'2'
p2293
(lp2294
S'3'
p2295
aS'4'
p2296
aS'1'
p2297
aS'5'
p2298
aS'6'
p2299
aS'8'
p2300
aS'7'
p2301
aS'9'
p2302
aS'?'
p2303
asS'tom'
p2304
(lp2305
S'toms'
p2306
aS'jake'
p2307
aS'gobbler'
p2308
aS'dixon'
p2309
aS'doug'
p2310
aS'brandon'
p2311
aS'adrian'
p2312
aS'keith'
p2313
aS'jim'
p2314
aS'tommy'
p2315
asS'white'
p2316
(lp2317
S'black'
p2318
aS'blue'
p2319
aS'brown'
p2320
aS'colored'
p2321
aS'gray'
p2322
aS'whites'
p2323
asS'perfectly'
p2324
(lp2325
S'Perfectly'
p2326
aS'nicely'
p2327
aS'beautifully'
p2328
aS'impeccably'
p2329
aS'wonderfully'
p2330
aS'excellently'
p2331
aS'superbly'
p2332
aS'neatly'
p2333
aS'marvelously'
p2334
aS'splendidly'
p2335
asS'friend'
p2336
(lp2337
S'pal'
p2338
aS'friends'
p2339
aS'buddy'
p2340
aS'acquaintance'
p2341
aS'cousin'
p2342
aS'girlfriend'
p2343
aS'colleague'
p2344
aS'uncle'
p2345
aS'roommate'
p2346
asS'that'
p2347
(lp2348
S'it'
p2349
aS'not'
p2350
aS'actually'
p2351
aS'however'
p2352
aS'if'
p2353
aS'but'
p2354
aS'what'
p2355
aS'this'
p2356
aS'which'
p2357
aS'indeed'
p2358
asS'gym'
p2359
(lp2360
S'gyms'
p2361
aS'Gym'
p2362
aS'gymnasium'
p2363
aS'weightroom'
p2364
aS'fieldhouse'
p2365
asS'wax'
p2366
(lp2367
S'beeswax'
p2368
aS'varnish'
p2369
aS'plaster'
p2370
aS'shellac'
p2371
asS'park'
p2372
(lp2373
S'parks'
p2374
aS'Park'
p2375
aS'parkland'
p2376
aS'campground'
p2377
asS'released'
p2378
(lp2379
S'relased'
p2380
aS'releasing'
p2381
aS'release'
p2382
aS'Released'
p2383
aS'releaed'
p2384
aS'published'
p2385
aS'Releasing'
p2386
aS'realeased'
p2387
aS'issued'
p2388
aS'releases'
p2389
asS'dentist'
p2390
(lp2391
S'orthodontist'
p2392
aS'Dentist'
p2393
aS'periodontist'
p2394
aS'doctor'
p2395
aS'dentists'
p2396
aS'dental'
p2397
aS'dermatologist'
p2398
asS'jordan'
p2399
(lp2400
S'kobe'
p2401
aS'nba'
p2402
aS'lebron'
p2403
aS'joel'
p2404
aS'russell'
p2405
aS'shaq'
p2406
aS'nike'
p2407
aS'michael'
p2408
aS'williams'
p2409
aS'luke'
p2410
asS'bieber'
p2411
(lp2412
S'jonas'
p2413
asS'helen'
p2414
(lp2415
S'rebecca'
p2416
aS'sarah'
p2417
aS'jackie'
p2418
aS'emily'
p2419
aS'danielle'
p2420
aS'nigel'
p2421
aS'vicki'
p2422
aS'kimberly'
p2423
aS'julie'
p2424
aS'cheryl'
p2425
asS'off'
p2426
(lp2427
S'down'
p2428
aS'out'
p2429
aS'away'
p2430
aS'Off'
p2431
aS'back'
p2432
aS'onto'
p2433
aS'up'
p2434
aS'offthe'
p2435
aS'on'
p2436
aS'in.'
p2437
asS'july'
p2438
(lp2439
S'september'
p2440
aS'feb'
p2441
aS'december'
p2442
aS'february'
p2443
aS'november'
p2444
aS'october'
p2445
aS'january'
p2446
aS'april'
p2447
aS'june'
p2448
aS'tuesday'
p2449
asS'colleagues'
p2450
(lp2451
S'colleague'
p2452
aS'collegues'
p2453
aS'colleages'
p2454
aS'coworkers'
p2455
aS'Colleagues'
p2456
aS'collaborators'
p2457
aS'coauthors'
p2458
aS'comrades'
p2459
aS'associates'
p2460
aS'friends'
p2461
asS'john'
p2462
(lp2463
S'dave'
p2464
aS'johnston'
p2465
aS'bennett'
p2466
aS'jeff'
p2467
aS'robert'
p2468
aS'pete'
p2469
aS'jason'
p2470
aS'doug'
p2471
aS'charles'
p2472
aS'david'
p2473
asS'tavern'
p2474
(lp2475
S'Tavern'
p2476
aS'taverns'
p2477
aS'pub'
p2478
aS'Pub'
p2479
aS'bar'
p2480
aS'diner'
p2481
aS'taproom'
p2482
aS'restaurant'
p2483
aS'brewpub'
p2484
asS'boring'
p2485
(lp2486
S'dull'
p2487
aS'uninteresting'
p2488
aS'monotonous'
p2489
aS'bored'
p2490
aS'bland'
p2491
aS'tedious'
p2492
aS'unexciting'
p2493
aS'tiresome'
p2494
asS'monger'
p2495
(lp2496
S'mongers'
p2497
aS'mongering'
p2498
aS'spewer'
p2499
aS'mongerer'
p2500
aS'panderer'
p2501
aS'triangulator'
p2502
aS'goldbug'
p2503
asS'bed'
p2504
(lp2505
S'beds'
p2506
aS'couch'
p2507
aS'bassinette'
p2508
aS'sofa'
p2509
aS'sleep'
p2510
aS'duvet'
p2511
aS'sleeping'
p2512
asS'supposed'
p2513
(lp2514
S'meant'
p2515
aS'going'
p2516
aS'intended'
p2517
aS'gonna'
p2518
aS'trying'
p2519
aS'suposed'
p2520
aS'wanted'
p2521
aS'not'
p2522
aS'want'
p2523
aS'slated'
p2524
asS'cards'
p2525
(lp2526
S'card'
p2527
aS'Card'
p2528
aS'Cards'
p2529
asS'powers'
p2530
(lp2531
S'prerogatives'
p2532
aS'authority'
p2533
aS'superpowers'
p2534
aS'power'
p2535
asS'san'
p2536
(lp2537
S'cho'
p2538
aS'Hiroshi'
p2539
aS'Masamichi'
p2540
aS'Eiji'
p2541
aS'Tomohiko'
p2542
aS'Kakimoto'
p2543
aS'Masanobu'
p2544
aS'Yasutaka'
p2545
aS'Junichiro'
p2546
aS'Nobuhiro'
p2547
asS'sam'
p2548
(lp2549
S'samuel'
p2550
aS'kim'
p2551
aS'ryan'
p2552
aS'jeff'
p2553
aS'raymond'
p2554
aS'danny'
p2555
aS'brandon'
p2556
aS'derek'
p2557
aS'david'
p2558
aS'walton'
p2559
asS'seth'
p2560
(lp2561
S'patti'
p2562
aS'arjun'
p2563
aS'kamal'
p2564
aS'sharma'
p2565
aS'raju'
p2566
aS'kintu'
p2567
aS'aadmi'
p2568
asS'mine'
p2569
(lp2570
S'Mine'
p2571
aS'mines'
p2572
aS'mining'
p2573
aS'miner'
p2574
aS'coalmine'
p2575
aS'miners'
p2576
asS'tonight'
p2577
(lp2578
S'Tonight'
p2579
aS'tomorrow'
p2580
aS'tonights'
p2581
aS'night'
p2582
aS'Saturday'
p2583
aS'Tonights'
p2584
aS'tongiht'
p2585
aS'tomorrrow'
p2586
aS'tommorow'
p2587
asS'defending'
p2588
(lp2589
S'Defending'
p2590
aS'defend'
p2591
aS'defended'
p2592
aS'defense'
p2593
aS'reigning'
p2594
aS'protecting'
p2595
aS'attacking'
p2596
aS'defenders'
p2597
asS'have'
p2598
(lp2599
S"'ve"
p2600
aS'had'
p2601
aS'already'
p2602
aS'been'
p2603
aS'has'
p2604
aS'they'
p2605
aS'Have'
p2606
aS'never'
p2607
asS'need'
p2608
(lp2609
S'needed'
p2610
aS'want'
p2611
aS'needs'
p2612
aS'must'
p2613
aS'needing'
p2614
aS'can'
p2615
aS'should'
p2616
aS'do'
p2617
aS'needto'
p2618
aS'necessary'
p2619
asS'breakfast'
p2620
(lp2621
S'breakfasts'
p2622
aS'brunch'
p2623
aS'dinner'
p2624
aS'lunch'
p2625
aS'Breakfast'
p2626
aS'meal'
p2627
aS'supper'
p2628
asS'saw'
p2629
(lp2630
S'noticed'
p2631
aS'witnessed'
p2632
aS'seeing'
p2633
aS'looked'
p2634
aS'came'
p2635
aS'watched'
p2636
aS'seen'
p2637
aS'showed'
p2638
aS'went'
p2639
aS'see'
p2640
asS'any'
p2641
(lp2642
S'whatsoever'
p2643
aS'anything'
p2644
aS'no'
p2645
aS'Any'
p2646
aS'or'
p2647
aS'anybody'
p2648
aS'either'
p2649
aS'anyone'
p2650
aS'nor'
p2651
aS'not'
p2652
asS'scotland'
p2653
(lp2654
S'scottish'
p2655
aS'british'
p2656
aS'england'
p2657
aS'scots'
p2658
aS'britain'
p2659
aS'blackpool'
p2660
aS'wales'
p2661
aS'cardiff'
p2662
aS'birmingham'
p2663
aS'auckland'
p2664
asS'snow'
p2665
(lp2666
S'snowfall'
p2667
aS'snows'
p2668
aS'snowstorm'
p2669
aS'snowfalls'
p2670
aS'sleet'
p2671
asS'also'
p2672
(lp2673
S'additionally'
p2674
aS'meanwhile'
p2675
aS'however'
p2676
aS'already'
p2677
aS'that'
p2678
aS'initially'
p2679
aS'likewise'
p2680
aS'previously'
p2681
aS'added'
p2682
aS'which'
p2683
asS'niece'
p2684
(lp2685
S'daughter'
p2686
aS'granddaughter'
p2687
aS'aunt'
p2688
aS'mother'
p2689
aS'grandmother'
p2690
aS'sister'
p2691
aS'nephew'
p2692
aS'stepdaughter'
p2693
aS'grandson'
p2694
aS'nieces'
p2695
asS'which'
p2696
(lp2697
S'The'
p2698
aS'This'
p2699
aS'that'
p2700
aS'That'
p2701
aS'It'
p2702
aS'He'
p2703
aS'Each'
p2704
aS'whch'
p2705
aS'but'
p2706
asS'play'
p2707
(lp2708
S'playing'
p2709
aS'plays'
p2710
aS'played'
p2711
aS'game'
p2712
aS'toplay'
p2713
aS'Playing'
p2714
aS'games'
p2715
aS'paly'
p2716
aS'score'
p2717
aS'Play'
p2718
asS'though'
p2719
(lp2720
S'although'
p2721
aS'but'
p2722
aS'however'
p2723
aS'even'
p2724
aS'nonetheless'
p2725
aS'nevertheless'
p2726
aS'if'
p2727
aS'still'
p2728
aS'anyway'
p2729
aS'only'
p2730
asS'who'
p2731
(lp2732
S'whom'
p2733
aS'whose'
p2734
aS'fellow'
p2735
aS'young'
p2736
aS'He'
p2737
aS'whowere'
p2738
aS'also'
p2739
aS'veteran'
p2740
asS'germany'
p2741
(lp2742
S'german'
p2743
aS'europe'
p2744
aS'european'
p2745
aS'sweden'
p2746
aS'switzerland'
p2747
aS'austria'
p2748
aS'france'
p2749
aS'spain'
p2750
aS'poland'
p2751
aS'russia'
p2752
asS'plan'
p2753
(lp2754
S'plans'
p2755
aS'proposal'
p2756
aS'Plan'
p2757
aS'blueprint'
p2758
aS'strategy'
p2759
aS'proposals'
p2760
aS'planned'
p2761
aS'proposed'
p2762
aS'planning'
p2763
aS'plan.The'
p2764
asS'nothing'
p2765
(lp2766
S'anything'
p2767
aS'Nothing'
p2768
aS'something'
p2769
aS'everything'
p2770
aS'nobody'
p2771
aS'no'
p2772
aS'anybody'
p2773
aS'NOTHING'
p2774
aS'never'
p2775
aS'certainly'
p2776
asS'jean'
p2777
(lp2778
S'denim'
p2779
aS'jeans'
p2780
aS'bootcut'
p2781
aS'jegging'
p2782
aS'denims'
p2783
aS'pant'
p2784
aS'skort'
p2785
asS'7am'
p2786
(lp2787
S'8am'
p2788
aS'5am'
p2789
aS'6am'
p2790
aS'9am'
p2791
aS'4am'
p2792
aS'5pm'
p2793
aS'6pm'
p2794
asS'don'
p2795
(lp2796
S'donning'
p2797
aS'donned'
p2798
aS'wear'
p2799
aS'dons'
p2800
aS'wearing'
p2801
aS'Donning'
p2802
aS'doff'
p2803
aS'wore'
p2804
aS'wearin'
p2805
asS'alarm'
p2806
(lp2807
S'alarms'
p2808
aS'Alarms'
p2809
aS'Alarm'
p2810
asS'later'
p2811
(lp2812
S'after'
p2813
aS'before'
p2814
aS'earlier'
p2815
aS'ago'
p2816
aS'subsequently'
p2817
aS'Later'
p2818
aS'eventually'
p2819
aS'next'
p2820
asS'request'
p2821
(lp2822
S'requests'
p2823
aS'requested'
p2824
aS'requesting'
p2825
aS'Requests'
p2826
aS'Request'
p2827
aS'recommendation'
p2828
aS'pleas'
p2829
aS'proposal'
p2830
asS'dog'
p2831
(lp2832
S'dogs'
p2833
aS'puppy'
p2834
aS'pooch'
p2835
aS'cat'
p2836
aS'Rottweiler'
p2837
aS'beagle'
p2838
aS'pup'
p2839
asS'mrs'
p2840
(lp2841
S'elizabeth'
p2842
aS'lydia'
p2843
aS'julia'
p2844
aS'mr'
p2845
aS'sarah'
p2846
aS'paula'
p2847
aS'patricia'
p2848
aS'elena'
p2849
aS'nigel'
p2850
aS'lori'
p2851
asS'sunset'
p2852
(lp2853
S'sunrise'
p2854
aS'sunsets'
p2855
aS'dusk'
p2856
aS'sundown'
p2857
aS'twilight'
p2858
aS'moonlight'
p2859
asS'thomas'
p2860
(lp2861
S'anthony'
p2862
aS'williams'
p2863
aS'evans'
p2864
aS'ryan'
p2865
aS'ellis'
p2866
aS'kevin'
p2867
aS'howard'
p2868
aS'michael'
p2869
aS'gordon'
p2870
aS'richards'
p2871
asS'show'
p2872
(lp2873
S'shows'
p2874
aS'showing'
p2875
aS'Show'
p2876
aS'showed'
p2877
aS'shown'
p2878
aS'demonstrate'
p2879
aS'Shows'
p2880
asS'tequila'
p2881
(lp2882
S'tequilas'
p2883
aS'vodka'
p2884
aS'Tequila'
p2885
aS'margarita'
p2886
aS'mezcal'
p2887
aS'margaritas'
p2888
aS'liqueur'
p2889
aS'rum'
p2890
asS'reschedule'
p2891
(lp2892
S'rescheduling'
p2893
aS'postpone'
p2894
aS'cancel'
p2895
aS'rescheduled'
p2896
aS'canceled'
p2897
aS'postponed'
p2898
aS'postponement'
p2899
aS'postponing'
p2900
aS'canceling'
p2901
aS'Rescheduling'
p2902
asS'session'
p2903
(lp2904
S'sessions'
p2905
aS'sesssion'
p2906
aS'sesion'
p2907
aS'sesson'
p2908
aS'session.The'
p2909
aS'Session'
p2910
aS'seesion'
p2911
aS'meeting'
p2912
asS'participate'
p2913
(lp2914
S'participating'
p2915
aS'participated'
p2916
aS'partake'
p2917
aS'particpate'
p2918
aS'attend'
p2919
aS'join'
p2920
aS'toparticipate'
p2921
aS'participates'
p2922
aS'participation'
p2923
aS'engage'
p2924
asS'tuesdays'
p2925
(lp2926
S'thursdays'
p2927
aS'saturdays'
p2928
aS'mondays'
p2929
aS'sundays'
p2930
aS'wednesdays'
p2931
aS'fridays'
p2932
aS'sunday'
p2933
aS'tomarrow'
p2934
aS'mabey'
p2935
asS'find'
p2936
(lp2937
S'discover'
p2938
aS'finding'
p2939
aS'Finding'
p2940
aS'found'
p2941
aS'tofind'
p2942
aS'locate'
p2943
aS'uncover'
p2944
aS'see'
p2945
asS'shoes'
p2946
(lp2947
S'sneakers'
p2948
aS'shoe'
p2949
aS'sandals'
p2950
aS'boots'
p2951
aS'footwear'
p2952
aS'socks'
p2953
aS'Nikes'
p2954
aS'loafers'
p2955
aS'clothes'
p2956
asS'slot'
p2957
(lp2958
S'slots'
p2959
aS'spot'
p2960
aS'timeslot'
p2961
asS'5pm'
p2962
(lp2963
S'6pm'
p2964
aS'4pm'
p2965
aS'9am'
p2966
aS'2pm'
p2967
aS'1pm'
p2968
aS'3pm'
p2969
aS'7pm'
p2970
aS'8am'
p2971
asS'title'
p2972
(lp2973
S'championship'
p2974
aS'crown'
p2975
aS'titles'
p2976
aS'championships'
p2977
aS'champs'
p2978
aS'champ'
p2979
aS'champion'
p2980
aS'championsip'
p2981
aS'trophy'
p2982
aS'chamionship'
p2983
asS'much'
p2984
(lp2985
S'little'
p2986
aS'far'
p2987
aS'lot'
p2988
aS'Much'
p2989
aS'even'
p2990
aS'actually'
p2991
aS'than'
p2992
aS'bit'
p2993
aS'what'
p2994
aS'considerably'
p2995
asS'should'
p2996
(lp2997
S'ought'
p2998
aS'must'
p2999
aS'can'
p3000
aS'may'
p3001
aS'will'
p3002
aS'would'
p3003
aS'could'
p3004
aS'might'
p3005
aS'Should'
p3006
aS'want'
p3007
asS'terminal'
p3008
(lp3009
S'terminals'
p3010
aS'Terminal'
p3011
aS'port'
p3012
asS'only'
p3013
(lp3014
S'one'
p3015
aS'just'
p3016
aS'Only'
p3017
aS'though'
p3018
aS'mere'
p3019
aS'actually'
p3020
aS'not'
p3021
aS'however'
p3022
aS'hardly'
p3023
aS'none'
p3024
asS'going'
p3025
(lp3026
S'gonna'
p3027
aS'coming'
p3028
aS"'ll"
p3029
aS'goingto'
p3030
aS'want'
p3031
aS'do'
p3032
aS'go'
p3033
aS'gotta'
p3034
aS'really'
p3035
asS'8'
p3036
(lp3037
S'6'
p3038
aS'7'
p3039
aS'5'
p3040
aS'9'
p3041
aS'4'
p3042
aS'3'
p3043
aS'2'
p3044
aS'1'
p3045
aS'to7'
p3046
asS'do'
p3047
(lp3048
S'want'
p3049
aS'know'
p3050
aS'not'
p3051
aS'did'
p3052
aS'anymore'
p3053
aS'think'
p3054
aS'does'
p3055
aS"don'tknow"
p3056
asS'his'
p3057
(lp3058
S'His'
p3059
aS'her'
p3060
aS'him'
p3061
aS'he'
p3062
aS'himself'
p3063
aS'my'
p3064
aS'ofhis'
p3065
aS'Her'
p3066
aS'their'
p3067
aS'tohis'
p3068
asS'get'
p3069
(lp3070
S'getting'
p3071
aS'got'
p3072
aS'gets'
p3073
aS'gotten'
p3074
aS'Getting'
p3075
aS'go'
p3076
aS'come'
p3077
aS'give'
p3078
aS'bring'
p3079
aS'toget'
p3080
asS'samuel'
p3081
(lp3082
S'joel'
p3083
aS'matthews'
p3084
aS'hernandez'
p3085
aS'richards'
p3086
aS'derek'
p3087
aS'ryan'
p3088
aS'bryan'
p3089
aS'dunn'
p3090
aS'robinson'
p3091
aS'albert'
p3092
asS'watch'
p3093
(lp3094
S'watching'
p3095
aS'watched'
p3096
aS'Watching'
p3097
aS'watches'
p3098
aS'see'
p3099
aS'watchin'
p3100
aS"TiVo'd"
p3101
aS'glued'
p3102
asS'trek'
p3103
(lp3104
S'treks'
p3105
aS'journey'
p3106
aS'jaunt'
p3107
aS'trip'
p3108
aS'trekked'
p3109
aS'sojourn'
p3110
aS'trekking'
p3111
asS'cannot'
p3112
(lp3113
S'lest'
p3114
aS'must'
p3115
aS'can'
p3116
aS'Stipulate'
p3117
aS"doesn't"
p3118
aS'reified'
p3119
aS'ought'
p3120
aS'shall'
p3121
aS'cannnot'
p3122
asS'wedding'
p3123
(lp3124
S'nuptials'
p3125
aS'weddings'
p3126
aS'bride'
p3127
aS'Wedding'
p3128
aS'bridal'
p3129
aS'newlyweds'
p3130
asS'report'
p3131
(lp3132
S'reports'
p3133
aS'Report'
p3134
aS'report.The'
p3135
aS'findings'
p3136
aS'survey'
p3137
aS'bulletin'
p3138
aS'summary'
p3139
aS'statement'
p3140
aS'article'
p3141
aS'areport'
p3142
asS'dr'
p3143
(lp3144
S'audi'
p3145
aS'mr'
p3146
aS'michael'
p3147
aS'alan'
p3148
aS'tr'
p3149
aS'rg'
p3150
aS'ron'
p3151
aS'tx'
p3152
aS'kenneth'
p3153
asS'him'
p3154
(lp3155
S'me'
p3156
aS'he'
p3157
aS'himself'
p3158
aS'them'
p3159
aS'his'
p3160
aS'somebody'
p3161
aS'myself'
p3162
aS'himto'
p3163
aS'He'
p3164
aS'anybody'
p3165
asS'bar'
p3166
(lp3167
S'Bar'
p3168
aS'bars'
p3169
aS'tavern'
p3170
aS'pub'
p3171
aS'nightspot'
p3172
aS'nightclub'
p3173
aS'Pub'
p3174
aS'bartender'
p3175
aS'restaurant'
p3176
aS'Lounge'
p3177
asS'held'
p3178
(lp3179
S'holding'
p3180
aS'hold'
p3181
aS'Held'
p3182
aS'holds'
p3183
aS'attended'
p3184
aS'staged'
p3185
aS'hosted'
p3186
aS'convened'
p3187
aS'conducted'
p3188
aS'scheduled'
p3189
asS'remove'
p3190
(lp3191
S'removed'
p3192
aS'removing'
p3193
aS'removal'
p3194
aS'removes'
p3195
aS'Removing'
p3196
aS'eliminate'
p3197
aS'rid'
p3198
aS'Remove'
p3199
aS'Removal'
p3200
aS'dislodge'
p3201
asS'morning'
p3202
(lp3203
S'afternoon'
p3204
aS'evening'
p3205
aS'moring'
p3206
aS'midday'
p3207
aS'night'
p3208
aS'afteroon'
p3209
aS'Friday'
p3210
aS'Monday'
p3211
aS'midmorning'
p3212
aS'day'
p3213
asS'stuff'
p3214
(lp3215
S'things'
p3216
aS'crap'
p3217
aS'thing'
p3218
aS'really'
p3219
aS'shit'
p3220
aS'guys'
p3221
aS'kinda'
p3222
aS'something'
p3223
asS'she'
p3224
(lp3225
S'her'
p3226
aS'She'
p3227
aS'herself'
p3228
aS'hers'
p3229
aS'he'
p3230
aS'woman'
p3231
aS'Rivadineira'
p3232
aS'mother'
p3233
aS"she'sa"
p3234
asS'river'
p3235
(lp3236
S'creek'
p3237
aS'lake'
p3238
aS'rivers'
p3239
aS'riverbank'
p3240
aS'canal'
p3241
aS'River'
p3242
aS'waterway'
p3243
aS'tributary'
p3244
aS'riverbed'
p3245
aS'downriver'
p3246
asS'where'
p3247
(lp3248
S'outside'
p3249
aS'in'
p3250
aS'elsewhere'
p3251
aS'when'
p3252
aS'near'
p3253
aS'wherever'
p3254
aS'Where'
p3255
aS'somewhere'
p3256
aS'Wherever'
p3257
asS'view'
p3258
(lp3259
S'views'
p3260
aS'viewpoint'
p3261
aS'perspective'
p3262
aS'vantage'
p3263
aS'Views'
p3264
aS'viewed'
p3265
asS'set'
p3266
(lp3267
S'setting'
p3268
aS'sets'
p3269
aS'Setting'
p3270
aS'Set'
p3271
aS'broke'
p3272
aS'Sets'
p3273
aS'breaking'
p3274
aS'pushed'
p3275
aS'put'
p3276
asS'thesis'
p3277
(lp3278
S'dissertation'
p3279
aS'theses'
p3280
aS'Thesis'
p3281
asS'rescheduling'
p3282
(lp3283
S'reschedule'
p3284
aS'cancellation'
p3285
aS'postponement'
p3286
aS'rescheduled'
p3287
aS'postponing'
p3288
aS'Rescheduling'
p3289
aS'cancelation'
p3290
aS'canceling'
p3291
aS'postpone'
p3292
aS'scheduling'
p3293
asS'see'
p3294
(lp3295
S'seeing'
p3296
aS'look'
p3297
aS'know'
p3298
aS'think'
p3299
aS'tell'
p3300
aS'find'
p3301
aS'watch'
p3302
aS'expect'
p3303
aS'imagine'
p3304
aS'realize'
p3305
asS'decided'
p3306
(lp3307
S'opted'
p3308
aS'chose'
p3309
aS'persuaded'
p3310
aS'agreed'
p3311
aS'wanted'
p3312
aS'decides'
p3313
aS'instructed'
p3314
aS'decide'
p3315
aS'refused'
p3316
asS'are'
p3317
(lp3318
S'were'
p3319
aS'Are'
p3320
aS"'re"
p3321
aS"they're"
p3322
aS'arent'
p3323
aS'these'
p3324
aS'ARE'
p3325
aS'?r?'
p3326
asS'calendar'
p3327
(lp3328
S'calender'
p3329
aS'Calendar'
p3330
aS'calendars'
p3331
aS'Calendars'
p3332
aS'calenders'
p3333
aS'calander'
p3334
asS'ruined'
p3335
(lp3336
S'ruining'
p3337
aS'wrecked'
p3338
aS'ruin'
p3339
aS'destroyed'
p3340
aS'spoiled'
p3341
aS'damaged'
p3342
aS'obliterated'
p3343
aS'sabotaged'
p3344
aS'shattered'
p3345
asS'yes'
p3346
(lp3347
S'Yes'
p3348
aS'yeah'
p3349
aS'Uh'
p3350
asS'pictures'
p3351
(lp3352
S'photos'
p3353
aS'photographs'
p3354
aS'images'
p3355
aS'photograph'
p3356
aS'photo'
p3357
aS'picture'
p3358
aS'Photographs'
p3359
aS'pics'
p3360
aS'Photos'
p3361
aS'snapshots'
p3362
asS'please'
p3363
(lp3364
S'Please'
p3365
aS'PLEASE'
p3366
asS'forecast'
p3367
(lp3368
S'forecasts'
p3369
aS'forcast'
p3370
aS'forecasting'
p3371
aS'forecasted'
p3372
aS'forcasts'
p3373
aS'outlook'
p3374
aS'Forecasts'
p3375
aS'projections'
p3376
aS'estimate'
p3377
aS'projection'
p3378
asS'3'
p3379
(lp3380
S'2'
p3381
aS'4'
p3382
aS'5'
p3383
aS'6'
p3384
aS'1'
p3385
aS'8'
p3386
aS'7'
p3387
aS'9'
p3388
aS'?'
p3389
asS'won'
p3390
(lp3391
S'winning'
p3392
aS'triumphed'
p3393
aS'clinched'
p3394
aS'wins'
p3395
aS'win'
p3396
aS'competed'
p3397
aS'bested'
p3398
aS'defeated'
p3399
asS'closed'
p3400
(lp3401
S'reopened'
p3402
aS'closing'
p3403
aS'opened'
p3404
aS'reopen'
p3405
aS'shut'
p3406
aS'closes'
p3407
aS'Closed'
p3408
aS'open'
p3409
aS'close'
p3410
aS'shuttered'
p3411
asS'between'
p3412
(lp3413
S'betwen'
p3414
aS'betweeen'
p3415
aS'beween'
p3416
aS'bewteen'
p3417
aS'betweem'
p3418
aS'betweenthe'
p3419
aS'Between'
p3420
aS'beteween'
p3421
aS'betwee'
p3422
asS'reading'
p3423
(lp3424
S'read'
p3425
aS'writing'
p3426
aS'reread'
p3427
aS'Schlichenmeyer'
p3428
aS'rereading'
p3429
aS'readings'
p3430
aS'reads'
p3431
asS'available'
p3432
(lp3433
S'availabe'
p3434
aS'avaliable'
p3435
aS'availble'
p3436
aS'avaiable'
p3437
aS'Available'
p3438
aS'avaialble'
p3439
aS'areavailable'
p3440
aS'avilable'
p3441
aS'accessible'
p3442
asS'we'
p3443
(lp3444
S'We'
p3445
aS'I'
p3446
aS'our'
p3447
aS'ourselves'
p3448
aS'you'
p3449
aS'they'
p3450
aS'us'
p3451
aS"'ve"
p3452
aS'really'
p3453
aS'going'
p3454
asS'august'
p3455
(lp3456
S'esteemed'
p3457
aS'venerable'
p3458
aS'exalted'
p3459
aS'lordly'
p3460
aS'hallowed'
p3461
asS'extend'
p3462
(lp3463
S'extending'
p3464
aS'extended'
p3465
aS'extends'
p3466
aS'Extending'
p3467
aS'expand'
p3468
aS'lengthen'
p3469
aS'renew'
p3470
aS'broaden'
p3471
aS'extension'
p3472
aS'Extend'
p3473
asS'nashville'
p3474
(lp3475
S'tennessee'
p3476
aS'atlanta'
p3477
aS'minneapolis'
p3478
aS'oklahoma'
p3479
aS'memphis'
p3480
aS'louisville'
p3481
aS'arkansas'
p3482
aS'tucson'
p3483
aS'wv'
p3484
asS'death'
p3485
(lp3486
S'deaths'
p3487
aS'murder'
p3488
aS'slaying'
p3489
aS'killing'
p3490
aS'fatal'
p3491
aS'murdered'
p3492
aS'deat'
p3493
aS'Death'
p3494
aS'died'
p3495
asS'come'
p3496
(lp3497
S'coming'
p3498
aS'go'
p3499
aS'bring'
p3500
aS'came'
p3501
aS'get'
p3502
aS'brought'
p3503
aS'gone'
p3504
aS'happen'
p3505
aS'put'
p3506
aS'comes'
p3507
asS'rugby'
p3508
(lp3509
S'Rugby'
p3510
aS'RUGBY'
p3511
aS'Harlequins'
p3512
asS'restaurant'
p3513
(lp3514
S'eatery'
p3515
aS'Restaurant'
p3516
aS'restuarant'
p3517
aS'restaurants'
p3518
aS'diner'
p3519
aS'steakhouse'
p3520
aS'pizzeria'
p3521
aS'Bistro'
p3522
aS'bistro'
p3523
aS'Grill'
p3524
asS'many'
p3525
(lp3526
S'several'
p3527
aS'numerous'
p3528
aS'some'
p3529
aS'countless'
p3530
aS'dozens'
p3531
aS'few'
p3532
aS'multitude'
p3533
aS'handful'
p3534
aS'myriad'
p3535
aS'those'
p3536
asS'invited'
p3537
(lp3538
S'Invited'
p3539
aS'invite'
p3540
aS'inviting'
p3541
aS'invites'
p3542
aS'encouraged'
p3543
aS'Inviting'
p3544
aS'hosted'
p3545
asS'called'
p3546
(lp3547
S'dubbed'
p3548
aS'termed'
p3549
aS'calling'
p3550
aS'Called'
p3551
aS'referred'
p3552
aS'denounced'
p3553
aS'described'
p3554
aS'Calling'
p3555
aS'calls'
p3556
aS'derided'
p3557
asS'april'
p3558
(lp3559
S'october'
p3560
aS'december'
p3561
aS'february'
p3562
aS'november'
p3563
aS'september'
p3564
aS'january'
p3565
aS'june'
p3566
aS'july'
p3567
aS'feb'
p3568
aS'sept'
p3569
asS'planned'
p3570
(lp3571
S'plans'
p3572
aS'scheduled'
p3573
aS'planed'
p3574
aS'slated'
p3575
aS'planning'
p3576
aS'Planned'
p3577
aS'plan'
p3578
aS'expected'
p3579
aS'intended'
p3580
asS'cemetery'
p3581
(lp3582
S'cemeteries'
p3583
aS'cemetary'
p3584
aS'Cemetery'
p3585
aS'graves'
p3586
aS'gravesite'
p3587
aS'gravesites'
p3588
aS'burial'
p3589
asS'tuesday'
p3590
(lp3591
S'thursday'
p3592
aS'monday'
p3593
aS'friday'
p3594
aS'wednesday'
p3595
aS'saturday'
p3596
aS'sunday'
p3597
aS'feb'
p3598
aS'july'
p3599
aS'tommorow'
p3600
aS'september'
p3601
asS'2nd'
p3602
(lp3603
S'3rd'
p3604
aS'4th'
p3605
aS'1st'
p3606
aS'5th'
p3607
aS'6th'
p3608
aS'7th'
p3609
aS'8th'
p3610
aS'9th'
p3611
asS'church'
p3612
(lp3613
S'congregation'
p3614
aS'churches'
p3615
aS'Church'
p3616
aS'parishioners'
p3617
aS'congregations'
p3618
aS'parish'
p3619
aS'chuch'
p3620
aS'parishoners'
p3621
asS'cancel'
p3622
(lp3623
S'canceled'
p3624
aS'canceling'
p3625
aS'cancellation'
p3626
aS'reschedule'
p3627
aS'postpone'
p3628
aS'cancelation'
p3629
aS'suspend'
p3630
aS'cancels'
p3631
aS'terminate'
p3632
asS'considering'
p3633
(lp3634
S'contemplating'
p3635
aS'mulling'
p3636
aS'consider'
p3637
aS'reconsidering'
p3638
aS'pondering'
p3639
aS'contemplate'
p3640
aS'toying'
p3641
aS'exploring'
p3642
aS'considered'
p3643
asS'quit'
p3644
(lp3645
S'quitting'
p3646
aS'quits'
p3647
aS'resign'
p3648
aS'resigned'
p3649
aS'resigning'
p3650
aS'retire'
p3651
aS'quiting'
p3652
aS'Quit'
p3653
asS'oliver'
p3654
(lp3655
S'bernard'
p3656
aS'christine'
p3657
aS'alan'
p3658
aS'armstrong'
p3659
aS'nigel'
p3660
aS'rebecca'
p3661
aS'adrian'
p3662
aS'joel'
p3663
aS'andrews'
p3664
aS'nikki'
p3665
asS'2pm'
p3666
(lp3667
S'1pm'
p3668
aS'3pm'
p3669
aS'4pm'
p3670
aS'6pm'
p3671
aS'7pm'
p3672
aS'9am'
p3673
aS'5pm'
p3674
asS'create'
p3675
(lp3676
S'creating'
p3677
aS'created'
p3678
aS'creates'
p3679
aS'Creating'
p3680
aS'generate'
p3681
aS'develop'
p3682
aS'creat'
p3683
aS'Create'
p3684
aS'build'
p3685
aS'establish'
p3686
asS'three'
p3687
(lp3688
S'four'
p3689
aS'five'
p3690
aS'two'
p3691
aS'six'
p3692
aS'seven'
p3693
aS'eight'
p3694
aS'nine'
p3695
aS'eleven'
p3696
aS'several'
p3697
aS'ten'
p3698
asS'been'
p3699
(lp3700
S'already'
p3701
aS'has'
p3702
aS'had'
p3703
aS'have'
p3704
aS'was'
p3705
aS'lately'
p3706
aS'beeen'
p3707
aS'were'
p3708
aS"'ve"
p3709
aS'hasbeen'
p3710
asS'workshop'
p3711
(lp3712
S'seminar'
p3713
aS'workshops'
p3714
aS'Workshop'
p3715
aS'Workshops'
p3716
aS'Seminar'
p3717
aS'symposium'
p3718
aS'seminars'
p3719
aS'workship'
p3720
asS'ireland'
p3721
(lp3722
S'uk'
p3723
aS'australia'
p3724
aS'malaysia'
p3725
aS'os'
p3726
aS'canada'
p3727
aS"n't"
p3728
aS'unix'
p3729
aS'february'
p3730
asS'entered'
p3731
(lp3732
S'enter'
p3733
aS'entering'
p3734
aS'exited'
p3735
aS'enters'
p3736
aS'Entered'
p3737
aS'reentered'
p3738
aS'Entering'
p3739
aS'opened'
p3740
aS'walked'
p3741
aS'enetered'
p3742
asS'meeting'
p3743
(lp3744
S'meetings'
p3745
aS'meeeting'
p3746
aS'Meeting'
p3747
aS'meeing'
p3748
aS'Meetings'
p3749
aS'worksession'
p3750
aS'roundtable'
p3751
aS'briefing'
p3752
aS'conference'
p3753
aS'forum'
p3754
asS'pm'
p3755
(lp3756
S'noon'
p3757
aS'pmon'
p3758
asS'flight'
p3759
(lp3760
S'flights'
p3761
aS'plane'
p3762
aS'Flight'
p3763
aS'airplane'
p3764
aS'takeoff'
p3765
aS'jet'
p3766
aS'airline'
p3767
aS'Flights'
p3768
asS'squash'
p3769
(lp3770
S'Squash'
p3771
aS'racketball'
p3772
aS'squashes'
p3773
aS'badminton'
p3774
aS'tennis'
p3775
aS'pattypan'
p3776
asS'anthony'
p3777
(lp3778
S'thomas'
p3779
aS'gordon'
p3780
aS'ryan'
p3781
aS'gary'
p3782
aS'michael'
p3783
aS'gilbert'
p3784
aS'joel'
p3785
aS'russell'
p3786
aS'mitchell'
p3787
aS'wallace'
p3788
asS'imax'
p3789
(lp3790
S'starwars'
p3791
asS'last'
p3792
(lp3793
S'earlier'
p3794
aS'Last'
p3795
aS'ago'
p3796
aS'previous'
p3797
aS'first'
p3798
aS'after'
p3799
aS'next'
p3800
aS'past'
p3801
aS'this'
p3802
aS'later'
p3803
asS'an'
p3804
(lp3805
S'An'
p3806
aS'another'
p3807
aS'AN'
p3808
aS'?n'
p3809
aS'aa'
p3810
aS'this'
p3811
aS'Another'
p3812
aS'isan'
p3813
aS'ofan'
p3814
asS'spain'
p3815
(lp3816
S'madrid'
p3817
aS'portugal'
p3818
aS'barcelona'
p3819
aS'italy'
p3820
aS'england'
p3821
aS'europe'
p3822
aS'diego'
p3823
aS'carlos'
p3824
aS'sweden'
p3825
asS'has'
p3826
(lp3827
S'had'
p3828
aS'Has'
p3829
aS'recently'
p3830
aS'been'
p3831
aS'have'
p3832
aS'hasbeen'
p3833
aS'already'
p3834
aS"'ve"
p3835
asS'air'
p3836
(lp3837
S'Air'
p3838
asS'will'
p3839
(lp3840
S'wil'
p3841
aS'can'
p3842
aS'would'
p3843
aS'should'
p3844
aS"'ll"
p3845
aS'willl'
p3846
aS'must'
p3847
aS'could'
p3848
aS'may'
p3849
aS'wll'
p3850
asS'shift'
p3851
(lp3852
S'shifts'
p3853
aS'shifting'
p3854
aS'change'
p3855
aS'shifted'
p3856
aS'Shifting'
p3857
aS'switch'
p3858
aS'reorientation'
p3859
asS'fun'
p3860
(lp3861
S'enjoyable'
p3862
aS'Fun'
p3863
aS'funny'
p3864
aS'entertaining'
p3865
aS'funnest'
p3866
aS'funner'
p3867
asS'voice'
p3868
(lp3869
S'voices'
p3870
aS'Voice'
p3871
aS'quavered'
p3872
asS'would'
p3873
(lp3874
S'could'
p3875
aS'might'
p3876
aS'will'
p3877
aS'should'
p3878
aS'did'
p3879
aS"'d"
p3880
aS'Would'
p3881
aS'may'
p3882
aS'wanted'
p3883
aS'Should'
p3884
asS'dublin'
p3885
(lp3886
S'glasgow'
p3887
aS'birmingham'
p3888
aS'alexander'
p3889
aS'brighton'
p3890
aS'walsh'
p3891
aS'adams'
p3892
aS'francis'
p3893
aS'kingston'
p3894
aS'tesco'
p3895
asS'is'
p3896
(lp3897
S'was'
p3898
aS"isn'ta"
p3899
aS'seems'
p3900
aS'Is'
p3901
aS'becomes'
p3902
aS'appears'
p3903
aS'remains'
p3904
aS'??'
p3905
aS'makes'
p3906
asS'it'
p3907
(lp3908
S'that'
p3909
aS'something'
p3910
aS'just'
p3911
aS'actually'
p3912
aS'It'
p3913
aS'what'
p3914
aS'anyway'
p3915
aS'really'
p3916
aS'so'
p3917
aS'if'
p3918
asS'lonely'
p3919
(lp3920
S'lonesome'
p3921
aS'loneliness'
p3922
aS'loneliest'
p3923
aS'forlorn'
p3924
aS'lonelier'
p3925
aS'solitude'
p3926
aS'desolate'
p3927
aS'hopeless'
p3928
aS'lovelorn'
p3929
aS'solitary'
p3930
asS'calender'
p3931
(lp3932
S'calendar'
p3933
aS'calenders'
p3934
aS'calendars'
p3935
aS'calander'
p3936
aS'Calendar'
p3937
asS'in'
p3938
(lp3939
S'inthe'
p3940
aS'where'
p3941
aS'the'
p3942
aS'In'
p3943
aS'during'
p3944
aS'iin'
p3945
aS'at'
p3946
aS'from'
p3947
aS'outside'
p3948
aS'for'
p3949
asS'if'
p3950
(lp3951
S'unless'
p3952
aS'anyway'
p3953
aS'even'
p3954
aS'whether'
p3955
aS'not'
p3956
aS'If'
p3957
aS'might'
p3958
aS'probably'
p3959
aS'when'
p3960
aS'though'
p3961
asS'because'
p3962
(lp3963
S'but'
p3964
aS'so'
p3965
aS'Because'
p3966
aS'anyway'
p3967
aS'obviously'
p3968
aS'due'
p3969
aS'becuase'
p3970
aS'becaue'
p3971
aS'although'
p3972
aS'unfortunately'
p3973
asS'anymore'
p3974
(lp3975
S'not'
p3976
aS'do'
p3977
aS'anyway'
p3978
aS'really'
p3979
aS'bother'
p3980
aS'anybody'
p3981
aS'anyways'
p3982
asS'pay'
p3983
(lp3984
S'paying'
p3985
aS'paid'
p3986
aS'pays'
p3987
aS'topay'
p3988
aS'reimburse'
p3989
aS'Paying'
p3990
aS'payed'
p3991
aS'payment'
p3992
aS'repay'
p3993
aS'Pay'
p3994
asS'make'
p3995
(lp3996
S'making'
p3997
aS'made'
p3998
aS'makes'
p3999
aS'Making'
p4000
aS'Make'
p4001
aS'tomake'
p4002
aS'get'
p4003
aS'give'
p4004
aS'makea'
p4005
aS'Makes'
p4006
asS'same'
p4007
(lp4008
S'Same'
p4009
aS'similar'
p4010
aS'different'
p4011
aS'comparable'
p4012
aS'identical'
p4013
aS'exact'
p4014
aS'similiar'
p4015
aS'compared'
p4016
aS'opposite'
p4017
asS'trip'
p4018
(lp4019
S'trips'
p4020
aS'excursion'
p4021
aS'jaunt'
p4022
aS'trek'
p4023
aS'sojourn'
p4024
aS'stopover'
p4025
aS'jaunts'
p4026
aS'journey'
p4027
aS'Trip'
p4028
aS'treks'
p4029
asS'8pm'
p4030
(lp4031
S'7pm'
p4032
aS'9pm'
p4033
aS'6pm'
p4034
aS'4pm'
p4035
aS'5pm'
p4036
aS'2pm'
p4037
aS'3pm'
p4038
asS'buddhism'
p4039
(lp4040
S'buddhist'
p4041
aS'hinduism'
p4042
aS'jnana'
p4043
aS'Buddism'
p4044
aS'relgion'
p4045
aS'Vaishnavism'
p4046
aS'Buddhism'
p4047
asS'9'
p4048
(lp4049
S'7'
p4050
aS'8'
p4051
aS'6'
p4052
aS'5'
p4053
aS'4'
p4054
aS'3'
p4055
aS'2'
p4056
aS'1'
p4057
aS'to7'
p4058
asS'party'
p4059
(lp4060
S'Party'
p4061
aS'parties'
p4062
aS'partys'
p4063
aS'caucus'
p4064
aS'pary'
p4065
aS'faction'
p4066
asS'events'
p4067
(lp4068
S'event'
p4069
aS'Events'
p4070
aS'happenings'
p4071
aS'gatherings'
p4072
asS'8am'
p4073
(lp4074
S'7am'
p4075
aS'9am'
p4076
aS'5pm'
p4077
aS'4pm'
p4078
aS'5am'
p4079
aS'6pm'
p4080
aS'1pm'
p4081
asS'week'
p4082
(lp4083
S'month'
p4084
aS'weekend'
p4085
aS'weeks'
p4086
aS'year'
p4087
aS'day'
p4088
aS'summer'
p4089
aS'fortnight'
p4090
aS'days'
p4091
aS'morning'
p4092
aS'week.The'
p4093
asS'finish'
p4094
(lp4095
S'finishing'
p4096
aS'finishes'
p4097
aS'finished'
p4098
aS'finsh'
p4099
aS'Finishing'
p4100
aS'finsih'
p4101
aS'win'
p4102
aS'finshing'
p4103
aS'finshed'
p4104
asS'assignment'
p4105
(lp4106
S'assignments'
p4107
aS'assigment'
p4108
aS'assigned'
p4109
aS'task'
p4110
aS'reassignment'
p4111
aS'Assignment'
p4112
aS'Assignments'
p4113
asS'drink'
p4114
(lp4115
S'drinks'
p4116
aS'drinking'
p4117
aS'Drink'
p4118
aS'drank'
p4119
aS'Drinking'
p4120
aS'beer'
p4121
aS'drunk'
p4122
asS'yesterday'
p4123
(lp4124
S'Yesterday'
p4125
aS'Monday'
p4126
aS'Wednesday'
p4127
aS'Thursday'
p4128
aS'Tuesday'
p4129
aS'Friday'
p4130
aS'yesteday'
p4131
aS'today'
p4132
aS'yeterday'
p4133
aS'morning'
p4134
asS'holidays'
p4135
(lp4136
S'holiday'
p4137
aS'Christmas'
p4138
aS'Thanksgiving'
p4139
aS'vacations'
p4140
aS'Holidays'
p4141
aS'festive'
p4142
aS'vacation'
p4143
aS'Easter'
p4144
asS'running'
p4145
(lp4146
S'Running'
p4147
aS'ran'
p4148
aS'run'
p4149
aS'runnning'
p4150
aS'runing'
p4151
aS'rushing'
p4152
asS'fucked'
p4153
(lp4154
S'fuck'
p4155
aS'fucking'
p4156
aS'screwed'
p4157
aS'effed'
p4158
aS'messed'
p4159
aS'fuckin'
p4160
asS'task'
p4161
(lp4162
S'tasks'
p4163
aS'chore'
p4164
asS'theater'
p4165
(lp4166
S'Theater'
p4167
aS'Theatre'
p4168
aS'cinema'
p4169
aS'theaters'
p4170
aS'theatrical'
p4171
aS'productions'
p4172
aS'moviehouse'
p4173
aS'Playhouse'
p4174
asS'i'
p4175
(lp4176
S'ive'
p4177
aS'im'
p4178
aS'lol'
p4179
aS'tho'
p4180
asS'well'
p4181
(lp4182
S'as'
p4183
aS'poorly'
p4184
aS'nicely'
p4185
aS'excellently'
p4186
aS'decently'
p4187
aS'good'
p4188
aS'reasonably'
p4189
aS'far'
p4190
aS'much'
p4191
aS'such'
p4192
asS'recital'
p4193
(lp4194
S'recitals'
p4195
aS'Recital'
p4196
aS'soloist'
p4197
asS'mother'
p4198
(lp4199
S'daughter'
p4200
aS'grandmother'
p4201
aS'aunt'
p4202
aS'niece'
p4203
aS'father'
p4204
aS'son'
p4205
aS'sister'
p4206
aS'wife'
p4207
aS'stepmother'
p4208
aS'granddaughter'
p4209
asS'entry'
p4210
(lp4211
S'Entry'
p4212
aS'enter'
p4213
aS'admittance'
p4214
aS'entering'
p4215
aS'entrant'
p4216
aS'entrance'
p4217
aS'entrants'
p4218
aS'entries'
p4219
aS'Entrance'
p4220
asS'the'
p4221
(lp4222
S'this'
p4223
aS'in'
p4224
aS'that'
p4225
aS'ofthe'
p4226
aS'another'
p4227
aS'however'
p4228
aS'one'
p4229
aS'entire'
p4230
aS'its'
p4231
aS'which'
p4232
asS'summer'
p4233
(lp4234
S'spring'
p4235
aS'winter'
p4236
aS'summertime'
p4237
aS'summers'
p4238
aS'autumn'
p4239
aS'weekend'
p4240
aS'week'
p4241
aS'Summer'
p4242
aS'springtime'
p4243
aS'month'
p4244
asS'just'
p4245
(lp4246
S'really'
p4247
aS'maybe'
p4248
aS'so'
p4249
aS'anyway'
p4250
aS'it'
p4251
aS'actually'
p4252
asS'weekend'
p4253
(lp4254
S'week'
p4255
aS'summer'
p4256
aS'Saturday'
p4257
aS'weeked'
p4258
aS'Weekend'
p4259
aS'night'
p4260
aS'Sunday'
p4261
aS'afternoon'
p4262
aS'weekened'
p4263
asS'paul'
p4264
(lp4265
S'adrian'
p4266
aS'alex'
p4267
aS'dave'
p4268
aS'joseph'
p4269
aS'ryan'
p4270
aS'david'
p4271
aS'jeff'
p4272
aS'chris'
p4273
aS'kevin'
p4274
aS'steve'
p4275
asS'weekly'
p4276
(lp4277
S'biweekly'
p4278
aS'monthly'
p4279
aS'daily'
p4280
aS'semiweekly'
p4281
aS'bimonthly'
p4282
aS'fortnightly'
p4283
aS'regular'
p4284
aS'Monthly'
p4285
asS'painful'
p4286
(lp4287
S'Painful'
p4288
aS'excruciating'
p4289
aS'traumatic'
p4290
aS'wrenching'
p4291
aS'torturous'
p4292
aS'unpleasant'
p4293
aS'agonizing'
p4294
aS'distressing'
p4295
asS'cherry'
p4296
(lp4297
S'cherries'
p4298
aS'raspberry'
p4299
aS'plums'
p4300
aS'apple'
p4301
aS'raspberries'
p4302
aS'peach'
p4303
aS'berry'
p4304
asS'had'
p4305
(lp4306
S'have'
p4307
aS'has'
p4308
aS'was'
p4309
aS'Had'
p4310
aS'been'
p4311
aS"'ve"
p4312
aS'having'
p4313
aS'got'
p4314
aS'were'
p4315
aS'knew'
p4316
asS'patricia'
p4317
(lp4318
S'gemma'
p4319
aS'rebecca'
p4320
aS'adrian'
p4321
aS'nigel'
p4322
aS'michele'
p4323
aS'jensen'
p4324
aS'danielle'
p4325
aS'joel'
p4326
asS'add'
p4327
(lp4328
S'Adding'
p4329
aS'Add'
p4330
aS'adds'
p4331
aS'bring'
p4332
aS'augment'
p4333
aS'create'
p4334
aS'incorporate'
p4335
aS'expand'
p4336
aS'combine'
p4337
aS'elevate'
p4338
asS'4'
p4339
(lp4340
S'3'
p4341
aS'5'
p4342
aS'2'
p4343
aS'6'
p4344
aS'8'
p4345
aS'7'
p4346
aS'1'
p4347
aS'9'
p4348
aS'?'
p4349
asS'save'
p4350
(lp4351
S'saved'
p4352
aS'saving'
p4353
aS'saves'
p4354
aS'saver'
p4355
aS'Saving'
p4356
aS'conserve'
p4357
aS'preserve'
p4358
aS'avert'
p4359
asS'scheduled'
p4360
(lp4361
S'slated'
p4362
aS'Scheduled'
p4363
aS'rescheduled'
p4364
aS'sheduled'
p4365
aS'planned'
p4366
aS'postponed'
p4367
aS'scheuled'
p4368
asS'sonic'
p4369
(lp4370
S'aural'
p4371
aS'sonics'
p4372
aS'sonically'
p4373
aS'synth'
p4374
aS'melodic'
p4375
aS'harmonic'
p4376
aS'timbral'
p4377
aS'soundscapes'
p4378
asS'marco'
p4379
(lp4380
S'alex'
p4381
aS'juan'
p4382
aS'cesar'
p4383
aS'pablo'
p4384
aS'luis'
p4385
aS'bastante'
p4386
aS'adrian'
p4387
aS'jb'
p4388
aS'samuel'
p4389
aS'andrew'
p4390
asS'march'
p4391
(lp4392
S'marching'
p4393
aS'marches'
p4394
aS'marched'
p4395
aS'marchers'
p4396
aS'procession'
p4397
aS'rally'
p4398
aS'parade'
p4399
aS'protest'
p4400
asS'possible'
p4401
(lp4402
S'practicable'
p4403
aS'potential'
p4404
aS'feasible'
p4405
aS'possibly'
p4406
aS'Possible'
p4407
aS'possibile'
p4408
aS'necessary'
p4409
aS'possibility'
p4410
aS'probable'
p4411
asS'gonna'
p4412
(lp4413
S'gotta'
p4414
aS'wanna'
p4415
aS'going'
p4416
aS"I'mma"
p4417
aS'tryin'
p4418
aS'yeah'
p4419
aS'goin'
p4420
aS'gunna'
p4421
aS'hey'
p4422
aS"'ll"
p4423
asS'testa'
p4424
(lp4425
S'meno'
p4426
aS'ligula'
p4427
aS'naturale'
p4428
aS'eget'
p4429
aS'lill'
p4430
aS'tuo'
p4431
asS'game'
p4432
(lp4433
S'games'
p4434
aS'play'
p4435
aS'match'
p4436
aS'matchup'
p4437
aS'agame'
p4438
aS'ballgame'
p4439
aS'thegame'
p4440
aS'opener'
p4441
aS'matches'
p4442
aS'tournament'
p4443
asS'capo'
p4444
(lp4445
S'Mafioso'
p4446
aS'underboss'
p4447
aS'capos'
p4448
aS'DeCavalcante'
p4449
asS'mom'
p4450
(lp4451
S'Mom'
p4452
aS'dad'
p4453
aS'mother'
p4454
aS'grandma'
p4455
aS'mommy'
p4456
aS'daddy'
p4457
aS'moms'
p4458
aS'Dad'
p4459
aS'daughter'
p4460
aS'mama'
p4461
asS'like'
p4462
(lp4463
S'really'
p4464
aS'weird'
p4465
aS'crazy'
p4466
aS'kind'
p4467
aS'maybe'
p4468
aS'loooove'
p4469
aS'anymore'
p4470
aS'definitely'
p4471
asS'patrick'
p4472
(lp4473
S'robert'
p4474
aS'gary'
p4475
aS'jeff'
p4476
aS'williams'
p4477
aS'doug'
p4478
aS'kevin'
p4479
aS'ronnie'
p4480
aS'thomas'
p4481
aS'ryan'
p4482
aS'thompson'
p4483
asS'garage'
p4484
(lp4485
S'garages'
p4486
aS'carport'
p4487
aS'Garage'
p4488
aS'attic'
p4489
aS'driveway'
p4490
aS'basement'
p4491
aS'house'
p4492
asS't'
p4493
(lp4494
S'ts'
p4495
aS'?'
p4496
aS'ta'
p4497
asS'night'
p4498
(lp4499
S'evening'
p4500
aS'afternoon'
p4501
aS'nights'
p4502
aS'Saturday'
p4503
aS'morning'
p4504
aS'tonight'
p4505
aS'Sunday'
p4506
aS'weekend'
p4507
aS'Friday'
p4508
asS'hallmark'
p4509
(lp4510
S'hallmarks'
p4511
aS'characteristic'
p4512
aS'cornerstone'
p4513
aS'cornerstones'
p4514
aS'bywords'
p4515
aS'byword'
p4516
aS'watchwords'
p4517
aS'synonymous'
p4518
aS'watchword'
p4519
asS'google'
p4520
(lp4521
S'wikipedia'
p4522
aS'googled'
p4523
aS'googling'
p4524
aS'slashdot'
p4525
aS'lifehacker'
p4526
aS'gizmodo'
p4527
aS'inurl'
p4528
asS'fucking'
p4529
(lp4530
S'fuckin'
p4531
aS'fuck'
p4532
aS'goddamn'
p4533
aS'shit'
p4534
aS'friggin'
p4535
aS'freakin'
p4536
aS'fucked'
p4537
asS'back'
p4538
(lp4539
S'out'
p4540
aS'down'
p4541
aS'off'
p4542
aS'then'
p4543
aS'again'
p4544
aS'into'
p4545
aS'away'
p4546
aS'Back'
p4547
aS'backto'
p4548
aS'onto'
p4549
asS'escape'
p4550
(lp4551
S'escaping'
p4552
aS'escaped'
p4553
aS'escapes'
p4554
aS'flee'
p4555
aS'Escaping'
p4556
aS'evade'
p4557
aS'dodge'
p4558
aS'elude'
p4559
aS'avoid'
p4560
aS'excape'
p4561
asS'dear'
p4562
(lp4563
S'dearest'
p4564
aS'dearly'
p4565
aS'beloved'
p4566
aS'cherished'
p4567
aS'Dearest'
p4568
asS'for'
p4569
(lp4570
S'forthe'
p4571
aS'give'
p4572
aS'in'
p4573
aS'For'
p4574
aS'f?r'
p4575
aS'giving'
p4576
aS'fortheir'
p4577
aS'given'
p4578
aS'plus'
p4579
aS'fo'
p4580
asS'confirm'
p4581
(lp4582
S'confirmed'
p4583
aS'confirming'
p4584
aS'verify'
p4585
aS'indicate'
p4586
aS'confirms'
p4587
aS'corroborate'
p4588
aS'substantiate'
p4589
aS'verified'
p4590
aS'ascertain'
p4591
aS'reveal'
p4592
asS'noon'
p4593
(lp4594
S'pm'
p4595
aS'4pm'
p4596
aS'2pm'
p4597
asS'shall'
p4598
(lp4599
S'must'
p4600
aS'hereby'
p4601
aS'henceforth'
p4602
aS'aforesaid'
p4603
aS'hereafter'
p4604
aS'should'
p4605
asS'pel'
p4606
(lp4607
S'nus'
p4608
aS'kye'
p4609
aS'voi'
p4610
aS'Pronounced'
p4611
aS'kuhn'
p4612
aS'diz'
p4613
aS'kes'
p4614
aS'tsu'
p4615
aS'zo'
p4616
asS'everything'
p4617
(lp4618
S'Everything'
p4619
aS'everybody'
p4620
aS'everyone'
p4621
aS'anything'
p4622
aS'nothing'
p4623
aS'whatever'
p4624
aS'something'
p4625
aS'things'
p4626
aS'everthing'
p4627
aS'what'
p4628
asS'does'
p4629
(lp4630
S'Does'
p4631
aS'did'
p4632
aS"doens't"
p4633
aS'do'
p4634
aS'not'
p4635
aS"doesn't"
p4636
aS"does't"
p4637
aS'necessarily'
p4638
asS'be'
p4639
(lp4640
S'being'
p4641
aS'tobe'
p4642
aS'are'
p4643
aS'have'
p4644
aS'willbe'
p4645
aS'notbe'
p4646
aS'should'
p4647
aS'been'
p4648
aS'remain'
p4649
aS'were'
p4650
asS'run'
p4651
(lp4652
S'runs'
p4653
aS'running'
p4654
aS'drive'
p4655
aS'ran'
p4656
aS'scamper'
p4657
aS'go'
p4658
aS'twoout'
p4659
aS'walk'
p4660
asS'schedule'
p4661
(lp4662
S'schedules'
p4663
aS'scheduling'
p4664
aS'sked'
p4665
aS'shedule'
p4666
aS'itinerary'
p4667
aS'Scheduling'
p4668
aS'rescheduling'
p4669
asS'marketing'
p4670
(lp4671
S'Marketing'
p4672
aS'branding'
p4673
aS'merchandising'
p4674
aS'Respond2'
p4675
aS'svp'
p4676
aS'advertising'
p4677
aS'marcom'
p4678
aS'eMarketing'
p4679
aS'evp'
p4680
aS'promotional'
p4681
asS'by'
p4682
(lp4683
S'bythe'
p4684
aS'subsequently'
p4685
aS'b?'
p4686
aS'partially'
p4687
aS'Suitably'
p4688
aS'bya'
p4689
aS'duly'
p4690
aS'Duly'
p4691
aS'being'
p4692
aS'be'
p4693
asS'on'
p4694
(lp4695
S'onthe'
p4696
aS'On'
p4697
aS'upon'
p4698
aS'onto'
p4699
aS'off'
p4700
aS'the'
p4701
aS'?n'
p4702
aS'Off'
p4703
aS'through'
p4704
asS'about'
p4705
(lp4706
S'abut'
p4707
aS'aboutthe'
p4708
aS'aboout'
p4709
aS'just'
p4710
aS'regarding'
p4711
aS'more'
p4712
aS'abou'
p4713
aS'concerning'
p4714
aS'around'
p4715
aS'abour'
p4716
asS'justin'
p4717
(lp4718
S'corey'
p4719
aS'ashley'
p4720
aS'nigel'
p4721
aS'derek'
p4722
aS'jason'
p4723
aS'kurt'
p4724
aS'selena'
p4725
aS'christina'
p4726
aS'jesse'
p4727
aS'michele'
p4728
asS'anything'
p4729
(lp4730
S'nothing'
p4731
aS'anybody'
p4732
aS'something'
p4733
aS'anyone'
p4734
aS'not'
p4735
aS'Nothing'
p4736
aS'everything'
p4737
aS'any'
p4738
aS'Anything'
p4739
aS'never'
p4740
asS'oh'
p4741
(lp4742
S'Oh'
p4743
aS'hey'
p4744
aS'uh'
p4745
aS'Uh'
p4746
aS'Ahh'
p4747
aS'gawd'
p4748
aS'ohhh'
p4749
aS'Ah'
p4750
aS'Ugh'
p4751
aS'Gawd'
p4752
asS'months'
p4753
(lp4754
S'weeks'
p4755
aS'years'
p4756
aS'days'
p4757
aS'month'
p4758
aS'decades'
p4759
aS'year'
p4760
aS'hours'
p4761
aS'week'
p4762
aS'Months'
p4763
aS'decade'
p4764
asS'discussed'
p4765
(lp4766
S'discussing'
p4767
aS'discuss'
p4768
aS'talked'
p4769
aS'debated'
p4770
aS'mentioned'
p4771
aS'explored'
p4772
aS'addressed'
p4773
aS'broached'
p4774
aS'discused'
p4775
aS'discusses'
p4776
asS'location'
p4777
(lp4778
S'locale'
p4779
aS'locations'
p4780
aS'proximity'
p4781
aS'Location'
p4782
asS'extension'
p4783
(lp4784
S'extention'
p4785
aS'extensions'
p4786
aS'extending'
p4787
aS'extend'
p4788
aS'extenstion'
p4789
aS'extended'
p4790
aS'contract'
p4791
aS'Extension'
p4792
asS'dinner'
p4793
(lp4794
S'dinners'
p4795
aS'brunch'
p4796
aS'Dinner'
p4797
aS'supper'
p4798
aS'luncheon'
p4799
aS'banquet'
p4800
aS'breakfast'
p4801
aS'meal'
p4802
aS'lunch'
p4803
asS'afternoon'
p4804
(lp4805
S'morning'
p4806
aS'evening'
p4807
aS'night'
p4808
aS'midday'
p4809
aS'Friday'
p4810
aS'afteroon'
p4811
aS'Monday'
p4812
aS'afternon'
p4813
aS'Thursday'
p4814
aS'Saturday'
p4815
asS'efforts'
p4816
(lp4817
S'effort'
p4818
aS'Efforts'
p4819
aS'attempts'
p4820
aS'initiatives'
p4821
aS'endeavors'
p4822
aS'endeavor'
p4823
asS'or'
p4824
(lp4825
S'either'
p4826
aS'any'
p4827
aS'Or'
p4828
aS'eg'
p4829
aS'otherwise'
p4830
asS'automatically'
p4831
(lp4832
S'Automatically'
p4833
aS'optionally'
p4834
aS'automagically'
p4835
aS'automatic'
p4836
aS'instantly'
p4837
aS'dynamically'
p4838
aS'manually'
p4839
aS'instantaneously'
p4840
asS'clubhouse'
p4841
(lp4842
S'clubhouses'
p4843
aS'Clubhouse'
p4844
aS'dugout'
p4845
aS'lockerroom'
p4846
asS'lands'
p4847
(lp4848
S'land'
p4849
aS'Lands'
p4850
aS'inholdings'
p4851
aS'ranchlands'
p4852
aS'forestland'
p4853
aS'forestlands'
p4854
aS'farmland'
p4855
asS'into'
p4856
(lp4857
S'intothe'
p4858
aS'onto'
p4859
aS'through'
p4860
aS'out'
p4861
aS'in.'
p4862
aS'back'
p4863
aS'intoa'
p4864
aS'Into'
p4865
aS'then'
p4866
aS'away'
p4867
asS'scones'
p4868
(lp4869
S'scone'
p4870
aS'muffins'
p4871
aS'shortbread'
p4872
asS'france'
p4873
(lp4874
S'spain'
p4875
aS'french'
p4876
aS'germany'
p4877
aS'europe'
p4878
aS'italy'
p4879
aS'england'
p4880
aS'european'
p4881
aS'belgium'
p4882
aS'usa'
p4883
aS'serbia'
p4884
asS'prepare'
p4885
(lp4886
S'preparing'
p4887
aS'preparation'
p4888
aS'Preparing'
p4889
aS'prepared'
p4890
aS'prepares'
p4891
aS'Prepare'
p4892
aS'prepping'
p4893
aS'gird'
p4894
aS'readying'
p4895
aS'preparations'
p4896
asS'transfer'
p4897
(lp4898
S'transfers'
p4899
aS'transferring'
p4900
aS'Transfer'
p4901
aS'transferred'
p4902
aS'tranfer'
p4903
aS'transfering'
p4904
aS'Transfers'
p4905
aS'Transferring'
p4906
aS'transfered'
p4907
aS'tranfers'
p4908
asS'museum'
p4909
(lp4910
S'Museum'
p4911
aS'musuem'
p4912
aS'museums'
p4913
aS'musem'
p4914
aS'Musuem'
p4915
aS'exhibit'
p4916
aS'Archaearium'
p4917
aS'Musem'
p4918
asS'flying'
p4919
(lp4920
S'fly'
p4921
aS'flew'
p4922
aS'Flying'
p4923
aS'flies'
p4924
aS'flight'
p4925
aS'flown'
p4926
aS'winging'
p4927
aS'flys'
p4928
aS'traveling'
p4929
asS'hey'
p4930
(lp4931
S"c'mon"
p4932
aS'yeah'
p4933
aS'Hey'
p4934
aS"y'know"
p4935
aS'freakin'
p4936
aS'dammit'
p4937
aS'geez'
p4938
aS'Okay'
p4939
aS'oh'
p4940
asS'long'
p4941
(lp4942
S'short'
p4943
aS'Long'
p4944
aS'longer'
p4945
aS'lengthy'
p4946
aS'longest'
p4947
aS'shorter'
p4948
aS'LONG'
p4949
asS'start'
p4950
(lp4951
S'begin'
p4952
aS'started'
p4953
aS'starting'
p4954
aS'starts'
p4955
aS'beginning'
p4956
aS'Start'
p4957
aS'finish'
p4958
aS'began'
p4959
aS'commence'
p4960
aS'resume'
p4961
asS'accordingly'
p4962
(lp4963
S'appropriately'
p4964
aS'properly'
p4965
aS'carefully'
p4966
aS'differently'
p4967
aS'accordance'
p4968
aS'correctly'
p4969
aS'prudently'
p4970
aS'adequately'
p4971
aS'intelligently'
p4972
aS'dynamically'
p4973
asS'pa'
p4974
(lp4975
S'ma'
p4976
aS'mo'
p4977
aS'na'
p4978
aS'po'
p4979
aS'sses'
p4980
aS'ted'
p4981
aS'Gvern'
p4982
aS'ta'
p4983
asS'lot'
p4984
(lp4985
S'lots'
p4986
aS'plenty'
p4987
aS'lotof'
p4988
aS'alot'
p4989
aS'some'
p4990
aS'little'
p4991
aS'really'
p4992
aS'definitely'
p4993
aS'much'
p4994
aS'lotta'
p4995
asS'suit'
p4996
(lp4997
S'suits'
p4998
aS'lawsuit'
p4999
aS'Suit'
p5000
aS'lawsuits'
p5001
aS'countersuit'
p5002
aS'complaint'
p5003
asS'valencia'
p5004
(lp5005
S'torres'
p5006
aS'barcelona'
p5007
aS'diarra'
p5008
aS'reyes'
p5009
aS'ronaldo'
p5010
aS'lazio'
p5011
aS'juventus'
p5012
aS'madrid'
p5013
asS'was'
p5014
(lp5015
S'is'
p5016
aS'had'
p5017
aS'Was'
p5018
aS"wasn'ta"
p5019
aS'became'
p5020
aS'were'
p5021
aS'seemed'
p5022
aS'been'
p5023
aS'came'
p5024
asS'buy'
p5025
(lp5026
S'sell'
p5027
aS'purchase'
p5028
aS'buying'
p5029
aS'bought'
p5030
aS'buys'
p5031
aS'Buy'
p5032
aS'tobuy'
p5033
aS'purchased'
p5034
aS'Buying'
p5035
aS'acquire'
p5036
asS'delayed'
p5037
(lp5038
S'postponed'
p5039
aS'delay'
p5040
aS'delaying'
p5041
aS'delays'
p5042
aS'postpone'
p5043
aS'rescheduled'
p5044
aS'halted'
p5045
aS'Delayed'
p5046
aS'postponing'
p5047
asS'episode'
p5048
(lp5049
S'episodes'
p5050
aS'ep'
p5051
aS'Episode'
p5052
aS'epsiode'
p5053
aS'parter'
p5054
aS'Episodes'
p5055
asS'with'
p5056
(lp5057
S'wtih'
p5058
aS'withthe'
p5059
aS'wth'
p5060
aS'wih'
p5061
aS'having'
p5062
aS'witha'
p5063
aS'w?th'
p5064
aS'between'
p5065
aS'withe'
p5066
aS'wiith'
p5067
asS'eat'
p5068
(lp5069
S'eating'
p5070
aS'ate'
p5071
aS'eaten'
p5072
aS'eats'
p5073
aS'munch'
p5074
aS'consume'
p5075
aS'overeaten'
p5076
asS'he'
p5077
(lp5078
S'He'
p5079
aS'him'
p5080
aS'his'
p5081
aS'she'
p5082
aS'himself'
p5083
aS'nobody'
p5084
aS'I'
p5085
aS'it'
p5086
aS'never'
p5087
aS'somebody'
p5088
asS'pull'
p5089
(lp5090
S'pulling'
p5091
aS'pulled'
p5092
aS'yank'
p5093
aS'pulls'
p5094
aS'Pulling'
p5095
aS'put'
p5096
aS'push'
p5097
aS'rip'
p5098
aS'hang'
p5099
aS'Pull'
p5100
asS'october'
p5101
(lp5102
S'september'
p5103
aS'april'
p5104
aS'december'
p5105
aS'november'
p5106
aS'july'
p5107
aS'february'
p5108
aS'january'
p5109
aS'feb'
p5110
aS'june'
p5111
aS'sept'
p5112
asS'rage'
p5113
(lp5114
S'anger'
p5115
aS'fury'
p5116
aS'indignation'
p5117
aS'angst'
p5118
aS'jealousy'
p5119
asS'up'
p5120
(lp5121
S'down'
p5122
aS'out'
p5123
aS'off'
p5124
aS'ups'
p5125
aS'upthe'
p5126
aS'in.'
p5127
aS'up.The'
p5128
aS'around'
p5129
aS'aside'
p5130
asS'tell'
p5131
(lp5132
S'know'
p5133
aS'telling'
p5134
aS'tells'
p5135
aS'ask'
p5136
aS'Tell'
p5137
aS'say'
p5138
aS'Telling'
p5139
aS'see'
p5140
aS'remind'
p5141
aS'explain'
p5142
asS'daddy'
p5143
(lp5144
S'momma'
p5145
aS'mama'
p5146
aS'dad'
p5147
aS'Daddy'
p5148
aS'mommy'
p5149
aS'Dad'
p5150
aS'mom'
p5151
aS'grandpa'
p5152
aS'mamma'
p5153
asS'minutes'
p5154
(lp5155
S'mintues'
p5156
aS'minute'
p5157
aS'seconds'
p5158
aS'hours'
p5159
aS'hour'
p5160
aS'minuets'
p5161
aS'mintes'
p5162
aS'minuts'
p5163
asS'display'
p5164
(lp5165
S'displays'
p5166
aS'displayed'
p5167
aS'displaying'
p5168
aS'Displays'
p5169
aS'Display'
p5170
aS'Displayed'
p5171
aS'diplay'
p5172
aS'exhibit'
p5173
aS'exhibited'
p5174
aS'dispaly'
p5175
asS'delete'
p5176
(lp5177
S'deleting'
p5178
aS'deleted'
p5179
aS'deletes'
p5180
aS'Delete'
p5181
aS'edit'
p5182
aS'overwrite'
p5183
aS'Deleting'
p5184
aS'untag'
p5185
aS'uninstall'
p5186
asS'cinema'
p5187
(lp5188
S'cinemas'
p5189
aS'Cinema'
p5190
aS'film'
p5191
aS'films'
p5192
aS'theater'
p5193
aS'arthouse'
p5194
aS'movie'
p5195
aS'filmmaking'
p5196
asS'm'
p5197
(lp5198
S'meters'
p5199
asS'forgot'
p5200
(lp5201
S'forgetting'
p5202
aS'forgets'
p5203
aS'forget'
p5204
aS'forgotten'
p5205
aS"didn'tI"
p5206
aS"didn't"
p5207
aS'remember'
p5208
asS'am'
p5209
(lp5210
S"'m"
p5211
aS'pm'
p5212
aS'noon'
p5213
aS'5p.m'
p5214
aS'6p.m'
p5215
asS'doesn'
p5216
(lp5217
S'isn'
p5218
aS'hasn'
p5219
aS'shouldn'
p5220
aS'wasn'
p5221
aS'wouldn'
p5222
aS'didn'
p5223
asS'availabilities'
p5224
(lp5225
S'availability'
p5226
aS'schedules'
p5227
aS'availablility'
p5228
aS'rentals'
p5229
aS'itineraries'
p5230
aS'availably'
p5231
aS'scheduling'
p5232
aS'utilizations'
p5233
asS'as'
p5234
(lp5235
S'well'
p5236
aS'As'
p5237
aS'such'
p5238
aS'so'
p5239
aS'asthe'
p5240
aS'regarded'
p5241
aS'but'
p5242
aS'Insofar'
p5243
aS'??'
p5244
aS'although'
p5245
asS'at'
p5246
(lp5247
S'At'
p5248
aS'atthe'
p5249
aS'near'
p5250
aS'in'
p5251
aS'where'
p5252
aS'around'
p5253
aS'Tuesdayat'
p5254
aS'before'
p5255
asS'politics'
p5256
(lp5257
S'Politics'
p5258
aS'political'
p5259
aS'politcs'
p5260
aS'poltics'
p5261
aS'partisanship'
p5262
aS'politicians'
p5263
aS'politician'
p5264
aS'politicking'
p5265
asS'cafe'
p5266
(lp5267
S'caf\xe9'
p5268
aS'cafes'
p5269
aS'caf'
p5270
aS'caf\xb4'
p5271
aS'coffeehouse'
p5272
aS'Cafe'
p5273
aS'restaurant'
p5274
aS'cafi'
p5275
aS'caf\xe9s'
p5276
asS'check'
p5277
(lp5278
S'checking'
p5279
aS'checks'
p5280
aS'checked'
p5281
aS'Checking'
p5282
aS'recheck'
p5283
aS'doublecheck'
p5284
aS'Check'
p5285
asS'saber'
p5286
(lp5287
S'epee'
p5288
aS'\xe9p\xe9e'
p5289
aS'foilists'
p5290
aS'Epee'
p5291
aS'ep\xe9e'
p5292
aS'fencer'
p5293
aS'sabers'
p5294
asS'no'
p5295
(lp5296
S'No'
p5297
aS'whatsoever'
p5298
aS'any'
p5299
aS'there'
p5300
aS'nothing'
p5301
aS'definite'
p5302
aS'nobody'
p5303
aS'none'
p5304
aS'neither'
p5305
aS'isno'
p5306
asS'when'
p5307
(lp5308
S'then'
p5309
aS'When'
p5310
aS'suddenly'
p5311
aS'Then'
p5312
aS'once'
p5313
aS'if'
p5314
aS'before'
p5315
aS'after'
p5316
aS'whenever'
p5317
aS'again'
p5318
asS'saturday'
p5319
(lp5320
S'sunday'
p5321
aS'friday'
p5322
aS'monday'
p5323
aS'thursday'
p5324
aS'tuesday'
p5325
aS'wednesday'
p5326
aS'tommorow'
p5327
aS'feb'
p5328
aS'tonite'
p5329
aS'saturdays'
p5330
asS'book'
p5331
(lp5332
S'tome'
p5333
aS'books'
p5334
aS'memoir'
p5335
aS'autobiography'
p5336
aS'memoirs'
p5337
aS'Book'
p5338
aS'paperback'
p5339
aS'novels'
p5340
aS'hardback'
p5341
asS'5'
p5342
(lp5343
S'6'
p5344
aS'4'
p5345
aS'8'
p5346
aS'3'
p5347
aS'7'
p5348
aS'2'
p5349
aS'1'
p5350
aS'9'
p5351
asS'details'
p5352
(lp5353
S'specifics'
p5354
aS'Details'
p5355
aS'particulars'
p5356
aS'detail'
p5357
aS'information'
p5358
aS'deatils'
p5359
aS'info'
p5360
asS'sick'
p5361
(lp5362
S'ill'
p5363
aS'Sick'
p5364
aS'unwell'
p5365
aS'sicker'
p5366
asS'you'
p5367
(lp5368
S'You'
p5369
aS'your'
p5370
aS'yourself'
p5371
aS'I'
p5372
aS'we'
p5373
aS"Don'tI"
p5374
aS'somebody'
p5375
aS'yours'
p5376
aS'ifyou'
p5377
aS'youre'
p5378
asS'really'
p5379
(lp5380
S'obviously'
p5381
aS'definitely'
p5382
aS'think'
p5383
aS'pretty'
p5384
aS'Really'
p5385
aS'kinda'
p5386
aS'just'
p5387
aS'kind'
p5388
aS'everybody'
p5389
aS'so'
p5390
asS'michael'
p5391
(lp5392
S'anthony'
p5393
aS'gary'
p5394
aS'robert'
p5395
aS'jeff'
p5396
aS'dave'
p5397
aS'williams'
p5398
aS'howard'
p5399
aS'david'
p5400
aS'thomas'
p5401
aS'ryan'
p5402
asS'monday'
p5403
(lp5404
S'friday'
p5405
aS'wednesday'
p5406
aS'tuesday'
p5407
aS'thursday'
p5408
aS'saturday'
p5409
aS'sunday'
p5410
aS'tommorow'
p5411
aS'saturdays'
p5412
aS'feb'
p5413
aS'tommorrow'
p5414
asS'students'
p5415
(lp5416
S'student'
p5417
aS'undergraduates'
p5418
aS'Students'
p5419
aS'teachers'
p5420
aS'classmates'
p5421
aS'faculty'
p5422
aS'sudents'
p5423
aS'studens'
p5424
asS'time'
p5425
(lp5426
S'day'
p5427
aS'moment'
p5428
aS'days'
p5429
aS'period'
p5430
aS'periods'
p5431
aS'when'
p5432
aS'times'
p5433
aS'weeks'
p5434
aS'hours'
p5435
aS'months'
p5436
asS'june'
p5437
(lp5438
S'september'
p5439
aS'april'
p5440
aS'november'
p5441
aS'july'
p5442
aS'february'
p5443
aS'december'
p5444
aS'october'
p5445
aS'feb'
p5446
aS'january'
p5447
aS'nov'
p5448
asS'chris'
p5449
(lp5450
S'david'
p5451
aS'paul'
p5452
aS'dave'
p5453
aS'gordon'
p5454
aS'ryan'
p5455
aS'kevin'
p5456
aS'clark'
p5457
aS'andrew'
p5458
aS'steve'
p5459
aS'darren'
p5460
asS'friends'
p5461
(lp5462
S'acquaintances'
p5463
aS'friend'
p5464
aS'buddies'
p5465
aS'pals'
p5466
aS'relatives'
p5467
aS'girlfriends'
p5468
aS'family'
p5469
aS'freinds'
p5470
aS'acquaintences'
p5471
asS'died'
p5472
(lp5473
S'killed'
p5474
aS'perished'
p5475
aS'hospitalized'
p5476
aS'dies'
p5477
aS'succumbed'
p5478
aS'dead'
p5479
aS'Died'
p5480
asS'land'
p5481
(lp5482
S'lands'
p5483
aS'farmland'
p5484
aS'acres'
p5485
aS'Land'
p5486
aS'property'
p5487
aS'tract'
p5488
aS'tracts'
p5489
asS'wife'
p5490
(lp5491
S'husband'
p5492
aS'daughter'
p5493
aS'fianc\xe9e'
p5494
aS'mother'
p5495
aS'fiancee'
p5496
aS'daughters'
p5497
aS'girlfriend'
p5498
aS'niece'
p5499
asS'airpot'
p5500
(lp5501
S'RGIA'
p5502
aS'airport'
p5503
aS'Mattala'
p5504
asS'youtube'
p5505
(lp5506
S'Youtube'
p5507
aS'vid'
p5508
aS'YouTube'
p5509
aS'vids'
p5510
aS'UTube'
p5511
aS'vimeo'
p5512
aS'Utube'
p5513
aS'utube'
p5514
asS'daily'
p5515
(lp5516
S'weekly'
p5517
aS'nightly'
p5518
aS'everyday'
p5519
aS'semiweekly'
p5520
aS'weekday'
p5521
asS'moment'
p5522
(lp5523
S'moments'
p5524
aS'juncture'
p5525
aS'time'
p5526
aS'thing'
p5527
aS'something'
p5528
asS'teeth'
p5529
(lp5530
S'tooth'
p5531
aS'molars'
p5532
aS'fangs'
p5533
aS'gnashers'
p5534
aS'incisors'
p5535
aS'bicuspids'
p5536
aS'dentures'
p5537
aS'chompers'
p5538
aS'toenails'
p5539
asS'8th'
p5540
(lp5541
S'7th'
p5542
aS'6th'
p5543
aS'9th'
p5544
aS'5th'
p5545
aS'4th'
p5546
aS'3rd'
p5547
aS'2nd'
p5548
aS'1st'
p5549
as.